ARM GAS  C:\Users\kgpol\AppData\Local\Temp\cc4o6iZe.s 			page 1


   1              		.cpu cortex-m7
   2              		.eabi_attribute 28, 1
   3              		.eabi_attribute 20, 1
   4              		.eabi_attribute 21, 1
   5              		.eabi_attribute 23, 3
   6              		.eabi_attribute 24, 1
   7              		.eabi_attribute 25, 1
   8              		.eabi_attribute 26, 1
   9              		.eabi_attribute 30, 2
  10              		.eabi_attribute 34, 1
  11              		.eabi_attribute 18, 4
  12              		.file	"delay-module.cpp"
  13              		.text
  14              	.Ltext0:
  15              		.cfi_sections	.debug_frame
  16              		.section	.text._ZN7daisysp9CrossFadeD2Ev,"axG",%progbits,_ZN7daisysp9CrossFadeD5Ev,comdat
  17              		.align	1
  18              		.p2align 2,,3
  19              		.weak	_ZN7daisysp9CrossFadeD2Ev
  20              		.arch armv7e-m
  21              		.syntax unified
  22              		.thumb
  23              		.thumb_func
  24              		.fpu fpv5-d16
  26              	_ZN7daisysp9CrossFadeD2Ev:
  27              	.LVL0:
  28              	.LFB2915:
  29              		.file 1 "../../DaisySP//Source/Dynamics/crossfade.h"
   1:../../DaisySP//Source/Dynamics/crossfade.h **** /*
   2:../../DaisySP//Source/Dynamics/crossfade.h **** Copyright (c) 2020 Electrosmith, Corp, Paul Batchelor
   3:../../DaisySP//Source/Dynamics/crossfade.h **** 
   4:../../DaisySP//Source/Dynamics/crossfade.h **** Use of this source code is governed by an MIT-style
   5:../../DaisySP//Source/Dynamics/crossfade.h **** license that can be found in the LICENSE file or at
   6:../../DaisySP//Source/Dynamics/crossfade.h **** https://opensource.org/licenses/MIT.
   7:../../DaisySP//Source/Dynamics/crossfade.h **** */
   8:../../DaisySP//Source/Dynamics/crossfade.h **** 
   9:../../DaisySP//Source/Dynamics/crossfade.h **** #pragma once
  10:../../DaisySP//Source/Dynamics/crossfade.h **** #ifndef DSY_CROSSFADE_H
  11:../../DaisySP//Source/Dynamics/crossfade.h **** #define DSY_CROSSFADE_H
  12:../../DaisySP//Source/Dynamics/crossfade.h **** #include <stdint.h>
  13:../../DaisySP//Source/Dynamics/crossfade.h **** #ifdef __cplusplus
  14:../../DaisySP//Source/Dynamics/crossfade.h **** 
  15:../../DaisySP//Source/Dynamics/crossfade.h **** namespace daisysp
  16:../../DaisySP//Source/Dynamics/crossfade.h **** {
  17:../../DaisySP//Source/Dynamics/crossfade.h **** /** Curve applied to the CrossFade
  18:../../DaisySP//Source/Dynamics/crossfade.h **** - LIN = linear
  19:../../DaisySP//Source/Dynamics/crossfade.h **** - CPOW = constant power
  20:../../DaisySP//Source/Dynamics/crossfade.h **** - LOG = logarithmic
  21:../../DaisySP//Source/Dynamics/crossfade.h **** - EXP  exponential
  22:../../DaisySP//Source/Dynamics/crossfade.h **** - LAST = end of enum (used for array indexing)
  23:../../DaisySP//Source/Dynamics/crossfade.h **** */
  24:../../DaisySP//Source/Dynamics/crossfade.h **** enum
  25:../../DaisySP//Source/Dynamics/crossfade.h **** {
  26:../../DaisySP//Source/Dynamics/crossfade.h ****     CROSSFADE_LIN,
  27:../../DaisySP//Source/Dynamics/crossfade.h ****     CROSSFADE_CPOW,
  28:../../DaisySP//Source/Dynamics/crossfade.h ****     CROSSFADE_LOG,
  29:../../DaisySP//Source/Dynamics/crossfade.h ****     CROSSFADE_EXP,
ARM GAS  C:\Users\kgpol\AppData\Local\Temp\cc4o6iZe.s 			page 2


  30:../../DaisySP//Source/Dynamics/crossfade.h ****     CROSSFADE_LAST,
  31:../../DaisySP//Source/Dynamics/crossfade.h **** };
  32:../../DaisySP//Source/Dynamics/crossfade.h **** 
  33:../../DaisySP//Source/Dynamics/crossfade.h **** /** Performs a CrossFade between two signals
  34:../../DaisySP//Source/Dynamics/crossfade.h **** 
  35:../../DaisySP//Source/Dynamics/crossfade.h ****     Original author: Paul Batchelor
  36:../../DaisySP//Source/Dynamics/crossfade.h **** 
  37:../../DaisySP//Source/Dynamics/crossfade.h ****     Ported from Soundpipe by Andrew Ikenberry
  38:../../DaisySP//Source/Dynamics/crossfade.h **** 
  39:../../DaisySP//Source/Dynamics/crossfade.h ****     added curve option for constant power, etc.
  40:../../DaisySP//Source/Dynamics/crossfade.h **** */
  41:../../DaisySP//Source/Dynamics/crossfade.h **** class CrossFade
  42:../../DaisySP//Source/Dynamics/crossfade.h **** {
  43:../../DaisySP//Source/Dynamics/crossfade.h ****   public:
  44:../../DaisySP//Source/Dynamics/crossfade.h ****     CrossFade() {}
  45:../../DaisySP//Source/Dynamics/crossfade.h ****     ~CrossFade() {}
  30              		.loc 1 45 5 view -0
  31              		.cfi_startproc
  32              		@ args = 0, pretend = 0, frame = 0
  33              		@ frame_needed = 0, uses_anonymous_args = 0
  34              		@ link register save eliminated.
  35              		.loc 1 45 19 is_stmt 0 view .LVU1
  36 0000 7047     		bx	lr
  37              		.cfi_endproc
  38              	.LFE2915:
  40              		.weak	_ZN7daisysp9CrossFadeD1Ev
  41              		.thumb_set _ZN7daisysp9CrossFadeD1Ev,_ZN7daisysp9CrossFadeD2Ev
  42 0002 00BF     		.section	.text._ZN5daisy6SwitchD2Ev,"axG",%progbits,_ZN5daisy6SwitchD5Ev,comdat
  43              		.align	1
  44              		.p2align 2,,3
  45              		.weak	_ZN5daisy6SwitchD2Ev
  46              		.syntax unified
  47              		.thumb
  48              		.thumb_func
  49              		.fpu fpv5-d16
  51              	_ZN5daisy6SwitchD2Ev:
  52              	.LVL1:
  53              	.LFB3766:
  54              		.file 2 "../../libDaisy//src/hid/switch.h"
   1:../../libDaisy//src/hid/switch.h **** #pragma once
   2:../../libDaisy//src/hid/switch.h **** #ifndef DSY_SWITCH_H
   3:../../libDaisy//src/hid/switch.h **** #define DSY_SWITCH_H
   4:../../libDaisy//src/hid/switch.h **** #include "daisy_core.h"
   5:../../libDaisy//src/hid/switch.h **** #include "per/gpio.h"
   6:../../libDaisy//src/hid/switch.h **** #include "sys/system.h"
   7:../../libDaisy//src/hid/switch.h **** 
   8:../../libDaisy//src/hid/switch.h **** namespace daisy
   9:../../libDaisy//src/hid/switch.h **** {
  10:../../libDaisy//src/hid/switch.h **** /** 
  11:../../libDaisy//src/hid/switch.h ****     Generic Class for handling momentary/latching switches \n 
  12:../../libDaisy//src/hid/switch.h ****     Inspired/influenced by Mutable Instruments (pichenettes) Switch classes
  13:../../libDaisy//src/hid/switch.h ****     @author Stephen Hensley
  14:../../libDaisy//src/hid/switch.h ****     @date December 2019
  15:../../libDaisy//src/hid/switch.h ****     @ingroup controls
  16:../../libDaisy//src/hid/switch.h **** */
  17:../../libDaisy//src/hid/switch.h **** class Switch
  18:../../libDaisy//src/hid/switch.h **** {
ARM GAS  C:\Users\kgpol\AppData\Local\Temp\cc4o6iZe.s 			page 3


  19:../../libDaisy//src/hid/switch.h ****   public:
  20:../../libDaisy//src/hid/switch.h ****     /** Specifies the expected behavior of the switch */
  21:../../libDaisy//src/hid/switch.h ****     enum Type
  22:../../libDaisy//src/hid/switch.h ****     {
  23:../../libDaisy//src/hid/switch.h ****         TYPE_TOGGLE,    /**< & */
  24:../../libDaisy//src/hid/switch.h ****         TYPE_MOMENTARY, /**< & */
  25:../../libDaisy//src/hid/switch.h ****     };
  26:../../libDaisy//src/hid/switch.h ****     /** Specifies whether the pressed is HIGH or LOW. */
  27:../../libDaisy//src/hid/switch.h ****     enum Polarity
  28:../../libDaisy//src/hid/switch.h ****     {
  29:../../libDaisy//src/hid/switch.h ****         POLARITY_NORMAL,   /**< & */
  30:../../libDaisy//src/hid/switch.h ****         POLARITY_INVERTED, /**< & */
  31:../../libDaisy//src/hid/switch.h ****     };
  32:../../libDaisy//src/hid/switch.h **** 
  33:../../libDaisy//src/hid/switch.h ****     /** Specifies whether to use built-in Pull Up/Down resistors to hold button at a given state wh
  34:../../libDaisy//src/hid/switch.h ****     enum Pull
  35:../../libDaisy//src/hid/switch.h ****     {
  36:../../libDaisy//src/hid/switch.h ****         PULL_UP,   /**< & */
  37:../../libDaisy//src/hid/switch.h ****         PULL_DOWN, /**< & */
  38:../../libDaisy//src/hid/switch.h ****         PULL_NONE, /**< & */
  39:../../libDaisy//src/hid/switch.h ****     };
  40:../../libDaisy//src/hid/switch.h **** 
  41:../../libDaisy//src/hid/switch.h ****     Switch() {}
  42:../../libDaisy//src/hid/switch.h ****     ~Switch() {}
  55              		.loc 2 42 5 is_stmt 1 view -0
  56              		.cfi_startproc
  57              		@ args = 0, pretend = 0, frame = 0
  58              		@ frame_needed = 0, uses_anonymous_args = 0
  59              		@ link register save eliminated.
  60              		.loc 2 42 16 is_stmt 0 view .LVU3
  61 0000 7047     		bx	lr
  62              		.cfi_endproc
  63              	.LFE3766:
  65              		.weak	_ZN5daisy6SwitchD1Ev
  66              		.thumb_set _ZN5daisy6SwitchD1Ev,_ZN5daisy6SwitchD2Ev
  67              		.section	.text._ZN5daisy13AnalogControlD2Ev,"axG",%progbits,_ZN5daisy13AnalogControlD5Ev,comdat
  68              		.align	1
  69              		.p2align 2,,3
  70              		.weak	_ZN5daisy13AnalogControlD2Ev
  71              		.syntax unified
  72              		.thumb
  73              		.thumb_func
  74              		.fpu fpv5-d16
  76              	_ZN5daisy13AnalogControlD2Ev:
  77              	.LVL2:
  78              	.LFB3798:
  79              		.file 3 "../../libDaisy//src/hid/ctrl.h"
   1:../../libDaisy//src/hid/ctrl.h **** #pragma once
   2:../../libDaisy//src/hid/ctrl.h **** #ifndef DSY_KNOB_H
   3:../../libDaisy//src/hid/ctrl.h **** #define DSY_KNOB_H /**< & */
   4:../../libDaisy//src/hid/ctrl.h **** #include <stdint.h>
   5:../../libDaisy//src/hid/ctrl.h **** 
   6:../../libDaisy//src/hid/ctrl.h **** #ifdef __cplusplus
   7:../../libDaisy//src/hid/ctrl.h **** namespace daisy
   8:../../libDaisy//src/hid/ctrl.h **** {
   9:../../libDaisy//src/hid/ctrl.h **** /**
  10:../../libDaisy//src/hid/ctrl.h ****     @brief Hardware Interface for control inputs \n 
ARM GAS  C:\Users\kgpol\AppData\Local\Temp\cc4o6iZe.s 			page 4


  11:../../libDaisy//src/hid/ctrl.h ****     Primarily designed for ADC input controls such as \n 
  12:../../libDaisy//src/hid/ctrl.h ****     potentiometers, and control voltage. \n 
  13:../../libDaisy//src/hid/ctrl.h ****     @author Stephen Hensley
  14:../../libDaisy//src/hid/ctrl.h ****     @date November 2019
  15:../../libDaisy//src/hid/ctrl.h ****     @ingroup controls
  16:../../libDaisy//src/hid/ctrl.h **** */
  17:../../libDaisy//src/hid/ctrl.h **** class AnalogControl
  18:../../libDaisy//src/hid/ctrl.h **** {
  19:../../libDaisy//src/hid/ctrl.h ****   public:
  20:../../libDaisy//src/hid/ctrl.h ****     /** Constructor */
  21:../../libDaisy//src/hid/ctrl.h ****     AnalogControl() {}
  22:../../libDaisy//src/hid/ctrl.h ****     /** destructor */
  23:../../libDaisy//src/hid/ctrl.h ****     ~AnalogControl() {}
  80              		.loc 3 23 5 is_stmt 1 view -0
  81              		.cfi_startproc
  82              		@ args = 0, pretend = 0, frame = 0
  83              		@ frame_needed = 0, uses_anonymous_args = 0
  84              		@ link register save eliminated.
  85              		.loc 3 23 23 is_stmt 0 view .LVU5
  86 0000 7047     		bx	lr
  87              		.cfi_endproc
  88              	.LFE3798:
  90              		.weak	_ZN5daisy13AnalogControlD1Ev
  91              		.thumb_set _ZN5daisy13AnalogControlD1Ev,_ZN5daisy13AnalogControlD2Ev
  92              		.section	.text._ZN5daisy6GateInD2Ev,"axG",%progbits,_ZN5daisy6GateInD5Ev,comdat
  93              		.align	1
  94              		.p2align 2,,3
  95              		.weak	_ZN5daisy6GateInD2Ev
  96              		.syntax unified
  97              		.thumb
  98              		.thumb_func
  99              		.fpu fpv5-d16
 101              	_ZN5daisy6GateInD2Ev:
 102              	.LVL3:
 103              	.LFB3808:
 104              		.file 4 "../../libDaisy//src/hid/gatein.h"
   1:../../libDaisy//src/hid/gatein.h **** #pragma once
   2:../../libDaisy//src/hid/gatein.h **** #ifndef DSY_GATEIN_H
   3:../../libDaisy//src/hid/gatein.h **** #define DSY_GATEIN_H
   4:../../libDaisy//src/hid/gatein.h **** #include "per/gpio.h"
   5:../../libDaisy//src/hid/gatein.h **** 
   6:../../libDaisy//src/hid/gatein.h **** namespace daisy
   7:../../libDaisy//src/hid/gatein.h **** {
   8:../../libDaisy//src/hid/gatein.h **** /**
   9:../../libDaisy//src/hid/gatein.h ****    @brief Generic Class for handling gate inputs through GPIO.
  10:../../libDaisy//src/hid/gatein.h ****    @author Stephen Hensley
  11:../../libDaisy//src/hid/gatein.h ****    @date    March 2020
  12:../../libDaisy//src/hid/gatein.h ****    @ingroup controls
  13:../../libDaisy//src/hid/gatein.h **** */
  14:../../libDaisy//src/hid/gatein.h **** class GateIn
  15:../../libDaisy//src/hid/gatein.h **** {
  16:../../libDaisy//src/hid/gatein.h ****   public:
  17:../../libDaisy//src/hid/gatein.h ****     /** GateIn Constructor */
  18:../../libDaisy//src/hid/gatein.h ****     GateIn() {}
  19:../../libDaisy//src/hid/gatein.h **** 
  20:../../libDaisy//src/hid/gatein.h ****     /** GateIn Destructor */
  21:../../libDaisy//src/hid/gatein.h ****     ~GateIn() {}
ARM GAS  C:\Users\kgpol\AppData\Local\Temp\cc4o6iZe.s 			page 5


 105              		.loc 4 21 5 is_stmt 1 view -0
 106              		.cfi_startproc
 107              		@ args = 0, pretend = 0, frame = 0
 108              		@ frame_needed = 0, uses_anonymous_args = 0
 109              		@ link register save eliminated.
 110              		.loc 4 21 16 is_stmt 0 view .LVU7
 111 0000 7047     		bx	lr
 112              		.cfi_endproc
 113              	.LFE3808:
 115              		.weak	_ZN5daisy6GateInD1Ev
 116              		.thumb_set _ZN5daisy6GateInD1Ev,_ZN5daisy6GateInD2Ev
 117              		.section	.text._ZN5daisy3LedD2Ev,"axG",%progbits,_ZN5daisy3LedD5Ev,comdat
 118              		.align	1
 119              		.p2align 2,,3
 120              		.weak	_ZN5daisy3LedD2Ev
 121              		.syntax unified
 122              		.thumb
 123              		.thumb_func
 124              		.fpu fpv5-d16
 126              	_ZN5daisy3LedD2Ev:
 127              	.LVL4:
 128              	.LFB3970:
 129              		.file 5 "../../libDaisy//src/hid/led.h"
   1:../../libDaisy//src/hid/led.h **** 
   2:../../libDaisy//src/hid/led.h **** #pragma once
   3:../../libDaisy//src/hid/led.h **** #ifndef DSY_LED_H
   4:../../libDaisy//src/hid/led.h **** #define DSY_LED_H
   5:../../libDaisy//src/hid/led.h **** #include "daisy_core.h"
   6:../../libDaisy//src/hid/led.h **** #include "per/gpio.h"
   7:../../libDaisy//src/hid/led.h **** 
   8:../../libDaisy//src/hid/led.h **** /* TODO - Get this set up to work with the dev_leddriver stuff as well
   9:../../libDaisy//src/hid/led.h **** - Setup Hardware PWM for pins that have it
  10:../../libDaisy//src/hid/led.h **** */
  11:../../libDaisy//src/hid/led.h **** 
  12:../../libDaisy//src/hid/led.h **** namespace daisy
  13:../../libDaisy//src/hid/led.h **** {
  14:../../libDaisy//src/hid/led.h **** /**
  15:../../libDaisy//src/hid/led.h ****     @brief LED Class providing simple Software PWM ability, etc \n 
  16:../../libDaisy//src/hid/led.h ****     Eventually this will work with hardware PWM, and external LED Driver devices as well.
  17:../../libDaisy//src/hid/led.h ****     @author shensley
  18:../../libDaisy//src/hid/led.h ****     @date March 2020
  19:../../libDaisy//src/hid/led.h ****     @ingroup feedback
  20:../../libDaisy//src/hid/led.h **** */
  21:../../libDaisy//src/hid/led.h **** class Led
  22:../../libDaisy//src/hid/led.h **** {
  23:../../libDaisy//src/hid/led.h ****   public:
  24:../../libDaisy//src/hid/led.h ****     Led() {}
  25:../../libDaisy//src/hid/led.h ****     ~Led() {}
 130              		.loc 5 25 5 is_stmt 1 view -0
 131              		.cfi_startproc
 132              		@ args = 0, pretend = 0, frame = 0
 133              		@ frame_needed = 0, uses_anonymous_args = 0
 134              		@ link register save eliminated.
 135              		.loc 5 25 13 is_stmt 0 view .LVU9
 136 0000 7047     		bx	lr
 137              		.cfi_endproc
 138              	.LFE3970:
ARM GAS  C:\Users\kgpol\AppData\Local\Temp\cc4o6iZe.s 			page 6


 140              		.weak	_ZN5daisy3LedD1Ev
 141              		.thumb_set _ZN5daisy3LedD1Ev,_ZN5daisy3LedD2Ev
 142              		.section	.text._ZN5daisy9DaisySeedD2Ev,"axG",%progbits,_ZN5daisy9DaisySeedD5Ev,comdat
 143              		.align	1
 144              		.p2align 2,,3
 145              		.weak	_ZN5daisy9DaisySeedD2Ev
 146              		.syntax unified
 147              		.thumb
 148              		.thumb_func
 149              		.fpu fpv5-d16
 151              	_ZN5daisy9DaisySeedD2Ev:
 152              	.LVL5:
 153              	.LFB4676:
 154              		.file 6 "../../libDaisy//src/daisy_seed.h"
   1:../../libDaisy//src/daisy_seed.h **** #pragma once
   2:../../libDaisy//src/daisy_seed.h **** #ifndef DSY_SEED_H
   3:../../libDaisy//src/daisy_seed.h **** #define DSY_SEED_H
   4:../../libDaisy//src/daisy_seed.h **** 
   5:../../libDaisy//src/daisy_seed.h **** #include "daisy.h"
   6:../../libDaisy//src/daisy_seed.h **** 
   7:../../libDaisy//src/daisy_seed.h **** //Uncomment this out if you're still using the rev2 hardware
   8:../../libDaisy//src/daisy_seed.h **** //#define SEED_REV2
   9:../../libDaisy//src/daisy_seed.h **** 
  10:../../libDaisy//src/daisy_seed.h **** namespace daisy
  11:../../libDaisy//src/daisy_seed.h **** {
  12:../../libDaisy//src/daisy_seed.h **** /**
  13:../../libDaisy//src/daisy_seed.h ****    @brief This is the higher-level interface for the Daisy board. \n 
  14:../../libDaisy//src/daisy_seed.h ****     All basic peripheral configuration/initialization is setup here. \n
  15:../../libDaisy//src/daisy_seed.h **** 
  16:../../libDaisy//src/daisy_seed.h ****    @ingroup boards
  17:../../libDaisy//src/daisy_seed.h **** */
  18:../../libDaisy//src/daisy_seed.h **** class DaisySeed
  19:../../libDaisy//src/daisy_seed.h **** {
  20:../../libDaisy//src/daisy_seed.h ****   public:
  21:../../libDaisy//src/daisy_seed.h ****     DaisySeed() {}
  22:../../libDaisy//src/daisy_seed.h ****     ~DaisySeed() {}
 155              		.loc 6 22 5 is_stmt 1 view -0
 156              		.cfi_startproc
 157              		@ args = 0, pretend = 0, frame = 0
 158              		@ frame_needed = 0, uses_anonymous_args = 0
 159              		@ link register save eliminated.
 160              	.LBB219:
 161              	.LBI219:
 162              		.file 7 "../../libDaisy//src/sys/system.h"
   1:../../libDaisy//src/sys/system.h **** #ifndef DSY_SYSTEM_H
   2:../../libDaisy//src/sys/system.h **** #define DSY_SYSTEM_H
   3:../../libDaisy//src/sys/system.h **** 
   4:../../libDaisy//src/sys/system.h **** #ifndef UNIT_TEST // for unit tests, a dummy implementation is provided below
   5:../../libDaisy//src/sys/system.h **** 
   6:../../libDaisy//src/sys/system.h **** #include <cstdint>
   7:../../libDaisy//src/sys/system.h **** #include "per/tim.h"
   8:../../libDaisy//src/sys/system.h **** 
   9:../../libDaisy//src/sys/system.h **** namespace daisy
  10:../../libDaisy//src/sys/system.h **** {
  11:../../libDaisy//src/sys/system.h **** /** A handle for interacting with the Core System.
  12:../../libDaisy//src/sys/system.h ****  ** This includes the Clock tree, MPU, global DMA initialization,
  13:../../libDaisy//src/sys/system.h ****  ** cache handling, and any other necessary global initiailzation
ARM GAS  C:\Users\kgpol\AppData\Local\Temp\cc4o6iZe.s 			page 7


  14:../../libDaisy//src/sys/system.h ****  **
  15:../../libDaisy//src/sys/system.h ****  ** @author shensley
  16:../../libDaisy//src/sys/system.h ****  ** @ingroup system
  17:../../libDaisy//src/sys/system.h ****  */
  18:../../libDaisy//src/sys/system.h **** class System
  19:../../libDaisy//src/sys/system.h **** {
  20:../../libDaisy//src/sys/system.h ****   public:
  21:../../libDaisy//src/sys/system.h ****     /** Contains settings for initializing the System */
  22:../../libDaisy//src/sys/system.h ****     struct Config
  23:../../libDaisy//src/sys/system.h ****     {
  24:../../libDaisy//src/sys/system.h ****         /** Specifies the system clock frequency that feeds APB/AHB clocks, etc. */
  25:../../libDaisy//src/sys/system.h ****         enum class SysClkFreq
  26:../../libDaisy//src/sys/system.h ****         {
  27:../../libDaisy//src/sys/system.h ****             FREQ_400MHZ,
  28:../../libDaisy//src/sys/system.h ****             FREQ_480MHZ,
  29:../../libDaisy//src/sys/system.h ****         };
  30:../../libDaisy//src/sys/system.h **** 
  31:../../libDaisy//src/sys/system.h ****         /** Method to call on the struct to set to defaults
  32:../../libDaisy//src/sys/system.h ****          ** CPU Freq set to 400MHz
  33:../../libDaisy//src/sys/system.h ****          ** Cache Enabled
  34:../../libDaisy//src/sys/system.h ****          ** */
  35:../../libDaisy//src/sys/system.h ****         void Defaults()
  36:../../libDaisy//src/sys/system.h ****         {
  37:../../libDaisy//src/sys/system.h ****             cpu_freq    = SysClkFreq::FREQ_400MHZ;
  38:../../libDaisy//src/sys/system.h ****             use_dcache  = true;
  39:../../libDaisy//src/sys/system.h ****             use_icache  = true;
  40:../../libDaisy//src/sys/system.h ****             skip_clocks = false;
  41:../../libDaisy//src/sys/system.h ****         }
  42:../../libDaisy//src/sys/system.h **** 
  43:../../libDaisy//src/sys/system.h ****         /** Method to call on the struct to set to boost mode:
  44:../../libDaisy//src/sys/system.h ****          ** CPU Freq set to 480MHz
  45:../../libDaisy//src/sys/system.h ****          ** Cache Enabled
  46:../../libDaisy//src/sys/system.h ****          ** */
  47:../../libDaisy//src/sys/system.h ****         void Boost()
  48:../../libDaisy//src/sys/system.h ****         {
  49:../../libDaisy//src/sys/system.h ****             cpu_freq    = SysClkFreq::FREQ_480MHZ;
  50:../../libDaisy//src/sys/system.h ****             use_dcache  = true;
  51:../../libDaisy//src/sys/system.h ****             use_icache  = true;
  52:../../libDaisy//src/sys/system.h ****             skip_clocks = false;
  53:../../libDaisy//src/sys/system.h ****         }
  54:../../libDaisy//src/sys/system.h **** 
  55:../../libDaisy//src/sys/system.h ****         SysClkFreq cpu_freq;
  56:../../libDaisy//src/sys/system.h ****         bool       use_dcache;
  57:../../libDaisy//src/sys/system.h ****         bool       use_icache;
  58:../../libDaisy//src/sys/system.h ****         bool       skip_clocks;
  59:../../libDaisy//src/sys/system.h ****     };
  60:../../libDaisy//src/sys/system.h **** 
  61:../../libDaisy//src/sys/system.h ****     /** Describes the different regions of memory available to the Daisy */
  62:../../libDaisy//src/sys/system.h ****     enum MemoryRegion
  63:../../libDaisy//src/sys/system.h ****     {
  64:../../libDaisy//src/sys/system.h ****         INTERNAL_FLASH = 0,
  65:../../libDaisy//src/sys/system.h ****         ITCMRAM,
  66:../../libDaisy//src/sys/system.h ****         DTCMRAM,
  67:../../libDaisy//src/sys/system.h ****         SRAM_D1,
  68:../../libDaisy//src/sys/system.h ****         SRAM_D2,
  69:../../libDaisy//src/sys/system.h ****         SRAM_D3,
  70:../../libDaisy//src/sys/system.h ****         SDRAM,
ARM GAS  C:\Users\kgpol\AppData\Local\Temp\cc4o6iZe.s 			page 8


  71:../../libDaisy//src/sys/system.h ****         QSPI,
  72:../../libDaisy//src/sys/system.h ****         INVALID_ADDRESS,
  73:../../libDaisy//src/sys/system.h ****     };
  74:../../libDaisy//src/sys/system.h **** 
  75:../../libDaisy//src/sys/system.h ****     /** Bootloader struct for controlling bootloading parameters */
  76:../../libDaisy//src/sys/system.h ****     struct BootInfo
  77:../../libDaisy//src/sys/system.h ****     {
  78:../../libDaisy//src/sys/system.h ****         enum class Type : uint32_t
  79:../../libDaisy//src/sys/system.h ****         {
  80:../../libDaisy//src/sys/system.h ****             INVALID      = 0x00000000,
  81:../../libDaisy//src/sys/system.h ****             JUMP         = 0xDEADBEEF,
  82:../../libDaisy//src/sys/system.h ****             SKIP_TIMEOUT = 0x5AFEB007,
  83:../../libDaisy//src/sys/system.h ****             INF_TIMEOUT  = 0xB0074EFA,
  84:../../libDaisy//src/sys/system.h ****         } status;
  85:../../libDaisy//src/sys/system.h ****         uint32_t data;
  86:../../libDaisy//src/sys/system.h ****         enum class Version : uint32_t
  87:../../libDaisy//src/sys/system.h ****         {
  88:../../libDaisy//src/sys/system.h ****             LT_v6_0 = 0, // Less than v6.0
  89:../../libDaisy//src/sys/system.h ****             NONE,        // No bootloader present
  90:../../libDaisy//src/sys/system.h ****             v6_0,        // v6.0
  91:../../libDaisy//src/sys/system.h ****             v6_1,        // v6.1 or greater
  92:../../libDaisy//src/sys/system.h ****             LAST
  93:../../libDaisy//src/sys/system.h ****         } version;
  94:../../libDaisy//src/sys/system.h ****     };
  95:../../libDaisy//src/sys/system.h **** 
  96:../../libDaisy//src/sys/system.h ****     System() {}
  97:../../libDaisy//src/sys/system.h ****     ~System() {}
 163              		.loc 7 97 5 view .LVU11
 164              		.loc 7 97 5 is_stmt 0 view .LVU12
 165              	.LBE219:
 166              	.LBB220:
 167              	.LBI220:
 168              		.file 8 "../../libDaisy//src/hid/usb.h"
   1:../../libDaisy//src/hid/usb.h **** #pragma once
   2:../../libDaisy//src/hid/usb.h **** #ifndef DSY_HID_USB_H
   3:../../libDaisy//src/hid/usb.h **** #define DSY_HID_USB_H
   4:../../libDaisy//src/hid/usb.h **** #include <stdint.h>
   5:../../libDaisy//src/hid/usb.h **** #include <stdlib.h>
   6:../../libDaisy//src/hid/usb.h **** 
   7:../../libDaisy//src/hid/usb.h **** namespace daisy
   8:../../libDaisy//src/hid/usb.h **** /** @addtogroup human_interface
   9:../../libDaisy//src/hid/usb.h ****     @{
  10:../../libDaisy//src/hid/usb.h **** */
  11:../../libDaisy//src/hid/usb.h **** 
  12:../../libDaisy//src/hid/usb.h **** {
  13:../../libDaisy//src/hid/usb.h **** /** 
  14:../../libDaisy//src/hid/usb.h ****     @brief Interface for initializing and using the USB Peripherals on the daisy
  15:../../libDaisy//src/hid/usb.h ****     @author Stephen Hensley
  16:../../libDaisy//src/hid/usb.h ****     @date December 2019
  17:../../libDaisy//src/hid/usb.h **** */
  18:../../libDaisy//src/hid/usb.h **** class UsbHandle
  19:../../libDaisy//src/hid/usb.h **** {
  20:../../libDaisy//src/hid/usb.h ****   public:
  21:../../libDaisy//src/hid/usb.h ****     /** Return values for USBHandle Functions */
  22:../../libDaisy//src/hid/usb.h ****     enum class Result
  23:../../libDaisy//src/hid/usb.h ****     {
  24:../../libDaisy//src/hid/usb.h ****         OK,
ARM GAS  C:\Users\kgpol\AppData\Local\Temp\cc4o6iZe.s 			page 9


  25:../../libDaisy//src/hid/usb.h ****         ERR,
  26:../../libDaisy//src/hid/usb.h ****     };
  27:../../libDaisy//src/hid/usb.h **** 
  28:../../libDaisy//src/hid/usb.h ****     /** Specified which of the two USB Peripherals to initialize. */
  29:../../libDaisy//src/hid/usb.h ****     enum UsbPeriph
  30:../../libDaisy//src/hid/usb.h ****     {
  31:../../libDaisy//src/hid/usb.h ****         FS_INTERNAL, /**< Internal pin */
  32:../../libDaisy//src/hid/usb.h ****         FS_EXTERNAL, /**< FS External D+ pin is Pin 38 (GPIO32). FS External D- pin is Pin 37 (GPIO
  33:../../libDaisy//src/hid/usb.h ****         FS_BOTH,     /**< Both */
  34:../../libDaisy//src/hid/usb.h ****     };
  35:../../libDaisy//src/hid/usb.h **** 
  36:../../libDaisy//src/hid/usb.h **** 
  37:../../libDaisy//src/hid/usb.h ****     /** Function called upon reception of a buffer */
  38:../../libDaisy//src/hid/usb.h ****     typedef void (*ReceiveCallback)(uint8_t* buff, uint32_t* len);
  39:../../libDaisy//src/hid/usb.h **** 
  40:../../libDaisy//src/hid/usb.h ****     UsbHandle() {}
  41:../../libDaisy//src/hid/usb.h **** 
  42:../../libDaisy//src/hid/usb.h ****     ~UsbHandle() {}
 169              		.loc 8 42 5 is_stmt 1 view .LVU13
 170              		.loc 8 42 5 is_stmt 0 view .LVU14
 171              	.LBE220:
 172              	.LBB221:
 173              	.LBI221:
 174              		.file 9 "../../libDaisy//src/per/adc.h"
   1:../../libDaisy//src/per/adc.h **** #pragma once
   2:../../libDaisy//src/per/adc.h **** #ifndef DSY_ADC_H
   3:../../libDaisy//src/per/adc.h **** #define DSY_ADC_H /**< Macro */
   4:../../libDaisy//src/per/adc.h **** #include <stdint.h>
   5:../../libDaisy//src/per/adc.h **** #include <stdlib.h>
   6:../../libDaisy//src/per/adc.h **** #include "daisy_core.h"
   7:../../libDaisy//src/per/adc.h **** #include "per/gpio.h"
   8:../../libDaisy//src/per/adc.h **** 
   9:../../libDaisy//src/per/adc.h **** #define DSY_ADC_MAX_CHANNELS 16 /**< Maximum number of ADC channels */
  10:../../libDaisy//src/per/adc.h **** 
  11:../../libDaisy//src/per/adc.h **** namespace daisy
  12:../../libDaisy//src/per/adc.h **** {
  13:../../libDaisy//src/per/adc.h **** /** @addtogroup per_analog
  14:../../libDaisy//src/per/adc.h ****     @{
  15:../../libDaisy//src/per/adc.h **** */
  16:../../libDaisy//src/per/adc.h **** 
  17:../../libDaisy//src/per/adc.h **** /* While there may not be many configuration options here,
  18:../../libDaisy//src/per/adc.h **** using a struct like this allows us to add more configuration
  19:../../libDaisy//src/per/adc.h **** later without breaking existing functionality.
  20:../../libDaisy//src/per/adc.h **** */
  21:../../libDaisy//src/per/adc.h **** 
  22:../../libDaisy//src/per/adc.h **** /** @brief   Configuration Structure for an ADC Channel 
  23:../../libDaisy//src/per/adc.h ****  *  @details This can be used to configure a a single input, 
  24:../../libDaisy//src/per/adc.h ****  *           or a multiplexed input, allowing up to 8 inputs on 
  25:../../libDaisy//src/per/adc.h ****  *           one channel.
  26:../../libDaisy//src/per/adc.h ****  *  @note    Sharing data lines to multiple muxes _is_ possible, but
  27:../../libDaisy//src/per/adc.h ****  *           each channel sharing data lines must be set to the maximum
  28:../../libDaisy//src/per/adc.h ****  *           number of channels, even if some multiplexers have fewer
  29:../../libDaisy//src/per/adc.h ****  *           inputs connected.
  30:../../libDaisy//src/per/adc.h **** */
  31:../../libDaisy//src/per/adc.h **** struct AdcChannelConfig
  32:../../libDaisy//src/per/adc.h **** {
  33:../../libDaisy//src/per/adc.h ****     /** Which pin to use for multiplexing */
ARM GAS  C:\Users\kgpol\AppData\Local\Temp\cc4o6iZe.s 			page 10


  34:../../libDaisy//src/per/adc.h ****     enum MuxPin
  35:../../libDaisy//src/per/adc.h ****     {
  36:../../libDaisy//src/per/adc.h ****         MUX_SEL_0,    /**< & */
  37:../../libDaisy//src/per/adc.h ****         MUX_SEL_1,    /**< & */
  38:../../libDaisy//src/per/adc.h ****         MUX_SEL_2,    /**< & */
  39:../../libDaisy//src/per/adc.h ****         MUX_SEL_LAST, /**< & */
  40:../../libDaisy//src/per/adc.h ****     };
  41:../../libDaisy//src/per/adc.h **** 
  42:../../libDaisy//src/per/adc.h ****     /** \brief per channel conversion speed added to fixed time based on bitdepth, etc. */
  43:../../libDaisy//src/per/adc.h ****     enum ConversionSpeed
  44:../../libDaisy//src/per/adc.h ****     {
  45:../../libDaisy//src/per/adc.h ****         SPEED_1CYCLES_5,
  46:../../libDaisy//src/per/adc.h ****         SPEED_2CYCLES_5,
  47:../../libDaisy//src/per/adc.h ****         SPEED_8CYCLES_5,
  48:../../libDaisy//src/per/adc.h ****         SPEED_16CYCLES_5,
  49:../../libDaisy//src/per/adc.h ****         SPEED_32CYCLES_5,
  50:../../libDaisy//src/per/adc.h ****         SPEED_64CYCLES_5,
  51:../../libDaisy//src/per/adc.h ****         SPEED_387CYCLES_5,
  52:../../libDaisy//src/per/adc.h ****         SPEED_810CYCLES_5,
  53:../../libDaisy//src/per/adc.h ****     };
  54:../../libDaisy//src/per/adc.h **** 
  55:../../libDaisy//src/per/adc.h ****     /** Initializes a single ADC pin as an ADC. 
  56:../../libDaisy//src/per/adc.h ****     \param pin Pin to init.
  57:../../libDaisy//src/per/adc.h ****     \param speed conversion speed for this pin defaults to 8.5 cycles
  58:../../libDaisy//src/per/adc.h ****      */
  59:../../libDaisy//src/per/adc.h ****     void InitSingle(dsy_gpio_pin pin, ConversionSpeed speed = SPEED_8CYCLES_5);
  60:../../libDaisy//src/per/adc.h **** 
  61:../../libDaisy//src/per/adc.h ****     /** 
  62:../../libDaisy//src/per/adc.h ****     Initializes a single ADC pin as a Multiplexed ADC.
  63:../../libDaisy//src/per/adc.h ****     Requires a CD405X Multiplexer connected to the pin.
  64:../../libDaisy//src/per/adc.h ****     You only need to supply the mux pins that are required,
  65:../../libDaisy//src/per/adc.h ****     e.g. a 4052 mux would only require mux_0 and mux_1.
  66:../../libDaisy//src/per/adc.h ****     Internal Callbacks handle the pin addressing.
  67:../../libDaisy//src/per/adc.h ****     \param adc_pin &
  68:../../libDaisy//src/per/adc.h ****     \param mux_channels must be 1-8
  69:../../libDaisy//src/per/adc.h ****     \param mux_0 First mux pin
  70:../../libDaisy//src/per/adc.h ****     \param mux_1 Second mux pin
  71:../../libDaisy//src/per/adc.h ****     \param mux_2 Third mux pin
  72:../../libDaisy//src/per/adc.h ****     \param speed conversion speed for this pin defaults to 8.5 cycles
  73:../../libDaisy//src/per/adc.h ****     */
  74:../../libDaisy//src/per/adc.h ****     void InitMux(dsy_gpio_pin    adc_pin,
  75:../../libDaisy//src/per/adc.h ****                  size_t          mux_channels,
  76:../../libDaisy//src/per/adc.h ****                  dsy_gpio_pin    mux_0,
  77:../../libDaisy//src/per/adc.h ****                  dsy_gpio_pin    mux_1 = {DSY_GPIOX, 0},
  78:../../libDaisy//src/per/adc.h ****                  dsy_gpio_pin    mux_2 = {DSY_GPIOX, 0},
  79:../../libDaisy//src/per/adc.h ****                  ConversionSpeed speed = SPEED_8CYCLES_5);
  80:../../libDaisy//src/per/adc.h **** 
  81:../../libDaisy//src/per/adc.h ****     dsy_gpio        pin_;                   /**< & */
  82:../../libDaisy//src/per/adc.h ****     dsy_gpio        mux_pin_[MUX_SEL_LAST]; /**< & */
  83:../../libDaisy//src/per/adc.h ****     uint8_t         mux_channels_;          /**< & */
  84:../../libDaisy//src/per/adc.h ****     ConversionSpeed speed_;
  85:../../libDaisy//src/per/adc.h **** };
  86:../../libDaisy//src/per/adc.h **** 
  87:../../libDaisy//src/per/adc.h **** /**
  88:../../libDaisy//src/per/adc.h ****    @brief Handler for analog to digital conversion
  89:../../libDaisy//src/per/adc.h **** */
  90:../../libDaisy//src/per/adc.h **** class AdcHandle
ARM GAS  C:\Users\kgpol\AppData\Local\Temp\cc4o6iZe.s 			page 11


  91:../../libDaisy//src/per/adc.h **** {
  92:../../libDaisy//src/per/adc.h ****   public:
  93:../../libDaisy//src/per/adc.h ****     /** Supported oversampling amounts */
  94:../../libDaisy//src/per/adc.h ****     enum OverSampling
  95:../../libDaisy//src/per/adc.h ****     {
  96:../../libDaisy//src/per/adc.h ****         OVS_NONE, /**< & */
  97:../../libDaisy//src/per/adc.h ****         OVS_4,    /**< & */
  98:../../libDaisy//src/per/adc.h ****         OVS_8,    /**< & */
  99:../../libDaisy//src/per/adc.h ****         OVS_16,   /**< & */
 100:../../libDaisy//src/per/adc.h ****         OVS_32,   /**< & */
 101:../../libDaisy//src/per/adc.h ****         OVS_64,   /**< & */
 102:../../libDaisy//src/per/adc.h ****         OVS_128,  /**< & */
 103:../../libDaisy//src/per/adc.h ****         OVS_256,  /**< & */
 104:../../libDaisy//src/per/adc.h ****         OVS_512,  /**< & */
 105:../../libDaisy//src/per/adc.h ****         OVS_1024, /**< & */
 106:../../libDaisy//src/per/adc.h ****         OVS_LAST, /**< & */
 107:../../libDaisy//src/per/adc.h ****     };
 108:../../libDaisy//src/per/adc.h **** 
 109:../../libDaisy//src/per/adc.h ****     AdcHandle() {}
 110:../../libDaisy//src/per/adc.h ****     ~AdcHandle() {}
 175              		.loc 9 110 5 is_stmt 1 view .LVU15
 176              		.loc 9 110 5 is_stmt 0 view .LVU16
 177              	.LBE221:
 178              	.LBB222:
 179              	.LBI222:
 180              		.file 10 "../../libDaisy//src/hid/audio.h"
   1:../../libDaisy//src/hid/audio.h **** #ifndef DSY_AUDIO_H
   2:../../libDaisy//src/hid/audio.h **** #define DSY_AUDIO_H /**< & */
   3:../../libDaisy//src/hid/audio.h **** 
   4:../../libDaisy//src/hid/audio.h **** #include "per/sai.h"
   5:../../libDaisy//src/hid/audio.h **** 
   6:../../libDaisy//src/hid/audio.h **** namespace daisy
   7:../../libDaisy//src/hid/audio.h **** {
   8:../../libDaisy//src/hid/audio.h **** /** @brief Audio Engine Handle
   9:../../libDaisy//src/hid/audio.h ****  *  @ingroup audio 
  10:../../libDaisy//src/hid/audio.h ****  *  @details This class allows for higher level access to an audio engine.
  11:../../libDaisy//src/hid/audio.h ****  *           If you're using a SOM like the DaisySeed or DaisyPatchSM (or any 
  12:../../libDaisy//src/hid/audio.h ****  *            board that includes one of those objects) then the intialization
  13:../../libDaisy//src/hid/audio.h ****  *            is already taken  care of.
  14:../../libDaisy//src/hid/audio.h ****  *           If you're setting up your own custom hardware, or need to make changes
  15:../../libDaisy//src/hid/audio.h ****  *           you will have to take the following steps:
  16:../../libDaisy//src/hid/audio.h ****  *             1. Create and Initialize an SaiHandle or two depending on your requirements
  17:../../libDaisy//src/hid/audio.h ****  *             2. Initialize the Audio Handle with the desired settings and the Initialized SaiHand
  18:../../libDaisy//src/hid/audio.h ****  *             3. If the connected codec requires special configuration or initialization, do so
  19:../../libDaisy//src/hid/audio.h ****  *             4. Write a callback method using either the AudioCallback or the InterleavingAudioCa
  20:../../libDaisy//src/hid/audio.h ****  *             5. Start the Audio using one of the StartAudio function
  21:../../libDaisy//src/hid/audio.h ****  */
  22:../../libDaisy//src/hid/audio.h **** class AudioHandle
  23:../../libDaisy//src/hid/audio.h **** {
  24:../../libDaisy//src/hid/audio.h ****   public:
  25:../../libDaisy//src/hid/audio.h ****     /** Manually configurable details about the Audio Engine */
  26:../../libDaisy//src/hid/audio.h ****     /** TODO: Figure out how to get samplerate in here. */
  27:../../libDaisy//src/hid/audio.h ****     struct Config
  28:../../libDaisy//src/hid/audio.h ****     {
  29:../../libDaisy//src/hid/audio.h ****         /** number of samples to process per callback */
  30:../../libDaisy//src/hid/audio.h ****         size_t blocksize;
  31:../../libDaisy//src/hid/audio.h **** 
ARM GAS  C:\Users\kgpol\AppData\Local\Temp\cc4o6iZe.s 			page 12


  32:../../libDaisy//src/hid/audio.h ****         /**< Sample rate of audio */
  33:../../libDaisy//src/hid/audio.h ****         SaiHandle::Config::SampleRate samplerate;
  34:../../libDaisy//src/hid/audio.h **** 
  35:../../libDaisy//src/hid/audio.h ****         /** factor for adjustment before and after callback for hardware that may have extra headro
  36:../../libDaisy//src/hid/audio.h ****         float postgain;
  37:../../libDaisy//src/hid/audio.h **** 
  38:../../libDaisy//src/hid/audio.h ****         /** factor for additional one-sided compensation to audio path for hardware that may
  39:../../libDaisy//src/hid/audio.h ****          *  have unequal input/output ranges
  40:../../libDaisy//src/hid/audio.h ****          */
  41:../../libDaisy//src/hid/audio.h ****         float output_compensation;
  42:../../libDaisy//src/hid/audio.h **** 
  43:../../libDaisy//src/hid/audio.h ****         /** Sets default values for config struct */
  44:../../libDaisy//src/hid/audio.h ****         Config()
  45:../../libDaisy//src/hid/audio.h ****         : blocksize(48),
  46:../../libDaisy//src/hid/audio.h ****           samplerate(SaiHandle::Config::SampleRate::SAI_48KHZ),
  47:../../libDaisy//src/hid/audio.h ****           postgain(1.f),
  48:../../libDaisy//src/hid/audio.h ****           output_compensation(1.f)
  49:../../libDaisy//src/hid/audio.h ****         {
  50:../../libDaisy//src/hid/audio.h ****         }
  51:../../libDaisy//src/hid/audio.h ****     };
  52:../../libDaisy//src/hid/audio.h **** 
  53:../../libDaisy//src/hid/audio.h ****     enum class Result
  54:../../libDaisy//src/hid/audio.h ****     {
  55:../../libDaisy//src/hid/audio.h ****         OK,
  56:../../libDaisy//src/hid/audio.h ****         ERR,
  57:../../libDaisy//src/hid/audio.h ****     };
  58:../../libDaisy//src/hid/audio.h **** 
  59:../../libDaisy//src/hid/audio.h ****     /** Non-Interleaving input buffer
  60:../../libDaisy//src/hid/audio.h ****      * Buffer arranged by float[chn][sample] 
  61:../../libDaisy//src/hid/audio.h ****      * const so that the user can't modify the input
  62:../../libDaisy//src/hid/audio.h ****      */
  63:../../libDaisy//src/hid/audio.h ****     typedef const float* const* InputBuffer;
  64:../../libDaisy//src/hid/audio.h **** 
  65:../../libDaisy//src/hid/audio.h ****     /** Non-Interleaving output buffer
  66:../../libDaisy//src/hid/audio.h ****      * Arranged by float[chn][sample] 
  67:../../libDaisy//src/hid/audio.h ****      */
  68:../../libDaisy//src/hid/audio.h ****     typedef float** OutputBuffer;
  69:../../libDaisy//src/hid/audio.h **** 
  70:../../libDaisy//src/hid/audio.h ****     /** Type for a Non-Interleaving audio callback 
  71:../../libDaisy//src/hid/audio.h ****      * Non-Interleaving audio callbacks in daisy will be of this type
  72:../../libDaisy//src/hid/audio.h ****      */
  73:../../libDaisy//src/hid/audio.h ****     typedef void (*AudioCallback)(InputBuffer  in,
  74:../../libDaisy//src/hid/audio.h ****                                   OutputBuffer out,
  75:../../libDaisy//src/hid/audio.h ****                                   size_t       size);
  76:../../libDaisy//src/hid/audio.h **** 
  77:../../libDaisy//src/hid/audio.h ****     /** Interleaving Input buffer
  78:../../libDaisy//src/hid/audio.h ****      ** audio is prepared as { L0, R0, L1, R1, . . . LN, RN }]
  79:../../libDaisy//src/hid/audio.h ****      ** this is const, as the user shouldn't modify it
  80:../../libDaisy//src/hid/audio.h ****     */
  81:../../libDaisy//src/hid/audio.h ****     typedef const float* InterleavingInputBuffer;
  82:../../libDaisy//src/hid/audio.h **** 
  83:../../libDaisy//src/hid/audio.h ****     /** Interleaving Output buffer 
  84:../../libDaisy//src/hid/audio.h ****      ** audio is prepared as { L0, R0, L1, R1, . . . LN, RN }
  85:../../libDaisy//src/hid/audio.h ****     */
  86:../../libDaisy//src/hid/audio.h ****     typedef float* InterleavingOutputBuffer;
  87:../../libDaisy//src/hid/audio.h **** 
  88:../../libDaisy//src/hid/audio.h ****     /** Interleaving Audio Callback 
ARM GAS  C:\Users\kgpol\AppData\Local\Temp\cc4o6iZe.s 			page 13


  89:../../libDaisy//src/hid/audio.h ****      * Interleaving audio callbacks in daisy must be of this type
  90:../../libDaisy//src/hid/audio.h ****      */
  91:../../libDaisy//src/hid/audio.h ****     typedef void (*InterleavingAudioCallback)(InterleavingInputBuffer  in,
  92:../../libDaisy//src/hid/audio.h ****                                               InterleavingOutputBuffer out,
  93:../../libDaisy//src/hid/audio.h ****                                               size_t                   size);
  94:../../libDaisy//src/hid/audio.h **** 
  95:../../libDaisy//src/hid/audio.h ****     AudioHandle() : pimpl_(nullptr) {}
  96:../../libDaisy//src/hid/audio.h ****     ~AudioHandle() {}
 181              		.loc 10 96 5 is_stmt 1 view .LVU17
 182              		.loc 10 96 5 is_stmt 0 view .LVU18
 183              	.LBE222:
 184              		.loc 6 22 19 view .LVU19
 185 0000 7047     		bx	lr
 186              		.cfi_endproc
 187              	.LFE4676:
 189              		.weak	_ZN5daisy9DaisySeedD1Ev
 190              		.thumb_set _ZN5daisy9DaisySeedD1Ev,_ZN5daisy9DaisySeedD2Ev
 191 0002 00BF     		.section	.text._ZN7daisysp9DelayLineIfLj960000EED2Ev,"axG",%progbits,_ZN7daisysp9DelayLineIfLj9600
 192              		.align	1
 193              		.p2align 2,,3
 194              		.weak	_ZN7daisysp9DelayLineIfLj960000EED2Ev
 195              		.syntax unified
 196              		.thumb
 197              		.thumb_func
 198              		.fpu fpv5-d16
 200              	_ZN7daisysp9DelayLineIfLj960000EED2Ev:
 201              	.LVL6:
 202              	.LFB5261:
 203              		.file 11 "../../DaisySP//Source/Utility/delayline.h"
   1:../../DaisySP//Source/Utility/delayline.h **** /*
   2:../../DaisySP//Source/Utility/delayline.h **** Copyright (c) 2020 Electrosmith, Corp
   3:../../DaisySP//Source/Utility/delayline.h **** 
   4:../../DaisySP//Source/Utility/delayline.h **** Use of this source code is governed by an MIT-style
   5:../../DaisySP//Source/Utility/delayline.h **** license that can be found in the LICENSE file or at
   6:../../DaisySP//Source/Utility/delayline.h **** https://opensource.org/licenses/MIT.
   7:../../DaisySP//Source/Utility/delayline.h **** */
   8:../../DaisySP//Source/Utility/delayline.h **** 
   9:../../DaisySP//Source/Utility/delayline.h **** #pragma once
  10:../../DaisySP//Source/Utility/delayline.h **** #ifndef DSY_DELAY_H
  11:../../DaisySP//Source/Utility/delayline.h **** #define DSY_DELAY_H
  12:../../DaisySP//Source/Utility/delayline.h **** #include <stdlib.h>
  13:../../DaisySP//Source/Utility/delayline.h **** #include <stdint.h>
  14:../../DaisySP//Source/Utility/delayline.h **** namespace daisysp
  15:../../DaisySP//Source/Utility/delayline.h **** {
  16:../../DaisySP//Source/Utility/delayline.h **** /** Simple Delay line.
  17:../../DaisySP//Source/Utility/delayline.h **** November 2019
  18:../../DaisySP//Source/Utility/delayline.h **** 
  19:../../DaisySP//Source/Utility/delayline.h **** Converted to Template December 2019
  20:../../DaisySP//Source/Utility/delayline.h **** 
  21:../../DaisySP//Source/Utility/delayline.h **** declaration example: (1 second of floats)
  22:../../DaisySP//Source/Utility/delayline.h **** 
  23:../../DaisySP//Source/Utility/delayline.h **** DelayLine<float, SAMPLE_RATE> del;
  24:../../DaisySP//Source/Utility/delayline.h **** 
  25:../../DaisySP//Source/Utility/delayline.h **** By: shensley
  26:../../DaisySP//Source/Utility/delayline.h **** */
  27:../../DaisySP//Source/Utility/delayline.h **** template <typename T, size_t max_size>
  28:../../DaisySP//Source/Utility/delayline.h **** class DelayLine
ARM GAS  C:\Users\kgpol\AppData\Local\Temp\cc4o6iZe.s 			page 14


  29:../../DaisySP//Source/Utility/delayline.h **** {
  30:../../DaisySP//Source/Utility/delayline.h ****   public:
  31:../../DaisySP//Source/Utility/delayline.h ****     DelayLine() {}
  32:../../DaisySP//Source/Utility/delayline.h ****     ~DelayLine() {}
 204              		.loc 11 32 5 is_stmt 1 view -0
 205              		.cfi_startproc
 206              		@ args = 0, pretend = 0, frame = 0
 207              		@ frame_needed = 0, uses_anonymous_args = 0
 208              		@ link register save eliminated.
 209              		.loc 11 32 19 is_stmt 0 view .LVU21
 210 0000 7047     		bx	lr
 211              		.cfi_endproc
 212              	.LFE5261:
 214              		.weak	_ZN7daisysp9DelayLineIfLj960000EED1Ev
 215              		.thumb_set _ZN7daisysp9DelayLineIfLj960000EED1Ev,_ZN7daisysp9DelayLineIfLj960000EED2Ev
 216              		.section	.text._ZL13AudioCallbackPKfPfj,"ax",%progbits
 217              		.align	1
 218              		.p2align 2,,3
 219              		.syntax unified
 220              		.thumb
 221              		.thumb_func
 222              		.fpu fpv5-d16
 224              	_ZL13AudioCallbackPKfPfj:
 225              	.LVL7:
 226              	.LFB4688:
 227              		.file 12 "delay-module.cpp"
   1:delay-module.cpp **** // TO DO
   2:delay-module.cpp **** // Add clock sync
   3:delay-module.cpp **** // Add tap tempo and clock divisions/multiplications
   4:delay-module.cpp **** // Add split/linked modes for delay time
   5:delay-module.cpp **** // Add time range modes (L/M/H)
   6:delay-module.cpp **** // Add a ping-pong mode
   7:delay-module.cpp **** 
   8:delay-module.cpp **** #include "daisysp.h"
   9:delay-module.cpp **** #include "daisy_seed.h"
  10:delay-module.cpp **** 
  11:delay-module.cpp **** // Interleaved audio definitions
  12:delay-module.cpp **** #define LEFT (i)
  13:delay-module.cpp **** #define RIGHT (i + 1)
  14:delay-module.cpp **** 
  15:delay-module.cpp **** // Set max delay time to 2 seconds
  16:delay-module.cpp **** #define MAX_DELAY static_cast<size_t>(96000 * 10.0f)
  17:delay-module.cpp **** #define MIN_DELAY static_cast<size_t>(96000 * 0.0001f)
  18:delay-module.cpp **** 
  19:delay-module.cpp **** // namespaces
  20:delay-module.cpp **** using namespace daisysp;
  21:delay-module.cpp **** using namespace daisy;
  22:delay-module.cpp **** 
  23:delay-module.cpp **** // Daisy modules
  24:delay-module.cpp **** static DaisySeed hw;
  25:delay-module.cpp **** static AnalogControl cv_0, cv_1, cv_2, cv_3;
  26:delay-module.cpp **** static GateIn clock, hold;
  27:delay-module.cpp **** static Led led_1_b, led_1_r, led_2_b, led_2_r;
  28:delay-module.cpp **** static CrossFade cross_fader;
  29:delay-module.cpp **** static Switch switch_1, switch_2;
  30:delay-module.cpp **** 
  31:delay-module.cpp **** // mode variables
ARM GAS  C:\Users\kgpol\AppData\Local\Temp\cc4o6iZe.s 			page 15


  32:delay-module.cpp **** bool clock_sync = false;
  33:delay-module.cpp **** int time_range = 0;
  34:delay-module.cpp **** 
  35:delay-module.cpp **** // 2 DelayLines of MAX_DELAY number of floats.
  36:delay-module.cpp **** static DelayLine<float, MAX_DELAY> DSY_SDRAM_BSS delay_l;
  37:delay-module.cpp **** static DelayLine<float, MAX_DELAY> DSY_SDRAM_BSS delay_r;
  38:delay-module.cpp **** 
  39:delay-module.cpp **** 
  40:delay-module.cpp **** // --------------------------------------------------------------------
  41:delay-module.cpp **** 
  42:delay-module.cpp **** static void InitAnalogControls(float sample_rate)
  43:delay-module.cpp **** {
  44:delay-module.cpp ****     // initialize the hardware ADC
  45:delay-module.cpp ****     const int num_adc_channels = 4;
  46:delay-module.cpp **** 	AdcChannelConfig adcConfig[num_adc_channels];
  47:delay-module.cpp **** 	adcConfig[0].InitSingle(seed::A0);
  48:delay-module.cpp ****     adcConfig[1].InitSingle(seed::A1);
  49:delay-module.cpp ****     adcConfig[2].InitSingle(seed::A2);
  50:delay-module.cpp ****     adcConfig[3].InitSingle(seed::A3);
  51:delay-module.cpp **** 	hw.adc.Init(adcConfig, num_adc_channels);
  52:delay-module.cpp **** 	hw.adc.Start();
  53:delay-module.cpp **** 
  54:delay-module.cpp ****     // initialize the AnalogControl objects
  55:delay-module.cpp **** 	cv_0.Init(hw.adc.GetPtr(0), sample_rate, true, false, 0.1f);
  56:delay-module.cpp ****     cv_1.Init(hw.adc.GetPtr(1), sample_rate, true, false, 0.1f);
  57:delay-module.cpp ****     cv_2.Init(hw.adc.GetPtr(2), sample_rate, true, false, 0.1f);
  58:delay-module.cpp ****     cv_3.Init(hw.adc.GetPtr(3), sample_rate, true, false, 0.1f);
  59:delay-module.cpp **** }
  60:delay-module.cpp **** 
  61:delay-module.cpp **** static void InitDac()
  62:delay-module.cpp **** {
  63:delay-module.cpp **** 	DacHandle::Config dac_cfg;
  64:delay-module.cpp **** 	dac_cfg.bitdepth = DacHandle::BitDepth::BITS_12;
  65:delay-module.cpp **** 	dac_cfg.buff_state = DacHandle::BufferState::ENABLED;
  66:delay-module.cpp **** 	dac_cfg.mode = DacHandle::Mode::POLLING;
  67:delay-module.cpp **** 	dac_cfg.chn = DacHandle::Channel::BOTH;
  68:delay-module.cpp **** 	hw.dac.Init(dac_cfg);
  69:delay-module.cpp **** 	hw.dac.WriteValue(DacHandle::Channel::ONE, 0);
  70:delay-module.cpp **** 	hw.dac.WriteValue(DacHandle::Channel::TWO, 0);
  71:delay-module.cpp **** }
  72:delay-module.cpp **** 
  73:delay-module.cpp **** static void InitDspModules()
  74:delay-module.cpp **** {
  75:delay-module.cpp ****     // initialize the delay lines
  76:delay-module.cpp ****     delay_l.Init();
  77:delay-module.cpp ****     delay_r.Init();
  78:delay-module.cpp **** 
  79:delay-module.cpp ****     // initialize the cross_fader (dry/wet control)
  80:delay-module.cpp ****     cross_fader.Init();
  81:delay-module.cpp ****     cross_fader.SetCurve(CROSSFADE_LIN);
  82:delay-module.cpp **** }
  83:delay-module.cpp **** 
  84:delay-module.cpp **** static void InitGpio()
  85:delay-module.cpp **** {
  86:delay-module.cpp ****     // initialize the gate inputs
  87:delay-module.cpp ****     clock.Init(seed::D26);
  88:delay-module.cpp ****     hold.Init(seed::D27);
ARM GAS  C:\Users\kgpol\AppData\Local\Temp\cc4o6iZe.s 			page 16


  89:delay-module.cpp **** 
  90:delay-module.cpp ****     // initialize the push button switches
  91:delay-module.cpp ****     switch_1.Init(seed::D12, 1000.0f);
  92:delay-module.cpp ****     switch_2.Init(seed::D11, 1000.0f);
  93:delay-module.cpp **** 
  94:delay-module.cpp ****     // initialize the LEDs
  95:delay-module.cpp ****     led_1_b.Init(seed::D29, false);
  96:delay-module.cpp ****     led_1_r.Init(seed::D30, false);
  97:delay-module.cpp ****     led_2_b.Init(seed::D8, false);
  98:delay-module.cpp ****     led_2_r.Init(seed::D7, false);
  99:delay-module.cpp **** }
 100:delay-module.cpp **** 
 101:delay-module.cpp **** static void ProcessSwitches()
 102:delay-module.cpp **** {
 103:delay-module.cpp ****     switch_1.Debounce();
 104:delay-module.cpp ****     switch_2.Debounce();
 105:delay-module.cpp **** 
 106:delay-module.cpp ****     if (switch_1.RisingEdge()) {
 107:delay-module.cpp ****         clock_sync = !clock_sync;
 108:delay-module.cpp ****         if (!clock_sync) {
 109:delay-module.cpp ****             led_1_b.Set(0.0f);
 110:delay-module.cpp ****             led_1_r.Set(0.0f);
 111:delay-module.cpp ****         }
 112:delay-module.cpp ****     }
 113:delay-module.cpp **** 
 114:delay-module.cpp ****     if (switch_2.RisingEdge()) {
 115:delay-module.cpp ****         time_range++;
 116:delay-module.cpp ****         if (time_range >= 4) {
 117:delay-module.cpp ****             time_range = 0;
 118:delay-module.cpp ****         }
 119:delay-module.cpp ****     }
 120:delay-module.cpp **** }
 121:delay-module.cpp **** 
 122:delay-module.cpp **** static void SetLeds()
 123:delay-module.cpp **** {
 124:delay-module.cpp ****     if (clock_sync) {
 125:delay-module.cpp ****         if (clock.State()) {
 126:delay-module.cpp ****             led_1_b.Set(1.0f);
 127:delay-module.cpp ****             led_1_r.Set(1.0f);
 128:delay-module.cpp ****         } else {
 129:delay-module.cpp ****             led_1_b.Set(0.4f);
 130:delay-module.cpp ****             led_1_r.Set(0.4f);
 131:delay-module.cpp ****         }
 132:delay-module.cpp ****     }
 133:delay-module.cpp **** 
 134:delay-module.cpp ****     switch (time_range) {
 135:delay-module.cpp ****         case 0:
 136:delay-module.cpp ****             led_2_b.Set(0.0f);
 137:delay-module.cpp ****             led_2_r.Set(0.0f);
 138:delay-module.cpp ****             break;
 139:delay-module.cpp ****         case 1:
 140:delay-module.cpp ****             led_2_b.Set(0.5f);
 141:delay-module.cpp ****             led_2_r.Set(0.0f);
 142:delay-module.cpp ****             break;
 143:delay-module.cpp ****         case 2:
 144:delay-module.cpp ****             led_2_b.Set(0.5f);
 145:delay-module.cpp ****             led_2_r.Set(0.5f);
ARM GAS  C:\Users\kgpol\AppData\Local\Temp\cc4o6iZe.s 			page 17


 146:delay-module.cpp ****             break;
 147:delay-module.cpp ****         case 3:
 148:delay-module.cpp ****             led_2_b.Set(0.0f);
 149:delay-module.cpp ****             led_2_r.Set(0.5f);
 150:delay-module.cpp ****             break;
 151:delay-module.cpp ****     }
 152:delay-module.cpp **** }
 153:delay-module.cpp **** 
 154:delay-module.cpp **** static void UpdateLeds()
 155:delay-module.cpp **** {
 156:delay-module.cpp ****     led_1_b.Update();
 157:delay-module.cpp ****     led_1_r.Update();
 158:delay-module.cpp ****     led_2_b.Update();
 159:delay-module.cpp ****     led_2_r.Update();
 160:delay-module.cpp **** }
 161:delay-module.cpp **** 
 162:delay-module.cpp **** static void AudioCallback(AudioHandle::InterleavingInputBuffer  in,
 163:delay-module.cpp ****                           AudioHandle::InterleavingOutputBuffer out,
 164:delay-module.cpp ****                           size_t                                size)
 165:delay-module.cpp **** {
 228              		.loc 12 165 1 is_stmt 1 view -0
 229              		.cfi_startproc
 230              		@ args = 0, pretend = 0, frame = 24
 231              		@ frame_needed = 0, uses_anonymous_args = 0
 166:delay-module.cpp ****     float   time_factor_l,
 232              		.loc 12 166 5 view .LVU23
 167:delay-module.cpp ****             time_factor_r,
 168:delay-module.cpp ****             fdbk_amount,
 169:delay-module.cpp ****             mix,
 170:delay-module.cpp ****             feedback_l,
 171:delay-module.cpp ****             feedback_r,
 172:delay-module.cpp ****             del_out_l,
 173:delay-module.cpp ****             del_out_r,
 174:delay-module.cpp ****             sig_in_l,
 175:delay-module.cpp ****             sig_in_r,
 176:delay-module.cpp ****             sig_out_l,
 177:delay-module.cpp ****             sig_out_r;
 178:delay-module.cpp **** 
 179:delay-module.cpp ****     time_factor_l = cv_0.Process();
 233              		.loc 12 179 5 view .LVU24
 165:delay-module.cpp ****     float   time_factor_l,
 234              		.loc 12 165 1 is_stmt 0 view .LVU25
 235 0000 2DE9F04F 		push	{r4, r5, r6, r7, r8, r9, r10, fp, lr}
 236              		.cfi_def_cfa_offset 36
 237              		.cfi_offset 4, -36
 238              		.cfi_offset 5, -32
 239              		.cfi_offset 6, -28
 240              		.cfi_offset 7, -24
 241              		.cfi_offset 8, -20
 242              		.cfi_offset 9, -16
 243              		.cfi_offset 10, -12
 244              		.cfi_offset 11, -8
 245              		.cfi_offset 14, -4
 246 0004 8146     		mov	r9, r0
 247              		.loc 12 179 33 view .LVU26
 248 0006 6F48     		ldr	r0, .L17
 249              	.LVL8:
ARM GAS  C:\Users\kgpol\AppData\Local\Temp\cc4o6iZe.s 			page 18


 165:delay-module.cpp ****     float   time_factor_l,
 250              		.loc 12 165 1 view .LVU27
 251 0008 8846     		mov	r8, r1
 252 000a 9246     		mov	r10, r2
 253              	.LBB238:
 254              	.LBB239:
  33:../../DaisySP//Source/Utility/delayline.h ****     /** initializes the delay line by clearing the values within, and setting delay to 1 sample.
  34:../../DaisySP//Source/Utility/delayline.h ****     */
  35:../../DaisySP//Source/Utility/delayline.h ****     void Init() { Reset(); }
  36:../../DaisySP//Source/Utility/delayline.h ****     /** clears buffer, sets write ptr to 0, and delay to 1 sample.
  37:../../DaisySP//Source/Utility/delayline.h ****     */
  38:../../DaisySP//Source/Utility/delayline.h ****     void Reset()
  39:../../DaisySP//Source/Utility/delayline.h ****     {
  40:../../DaisySP//Source/Utility/delayline.h ****         for(size_t i = 0; i < max_size; i++)
  41:../../DaisySP//Source/Utility/delayline.h ****         {
  42:../../DaisySP//Source/Utility/delayline.h ****             line_[i] = T(0);
  43:../../DaisySP//Source/Utility/delayline.h ****         }
  44:../../DaisySP//Source/Utility/delayline.h ****         write_ptr_ = 0;
  45:../../DaisySP//Source/Utility/delayline.h ****         delay_     = 1;
  46:../../DaisySP//Source/Utility/delayline.h ****     }
  47:../../DaisySP//Source/Utility/delayline.h **** 
  48:../../DaisySP//Source/Utility/delayline.h ****     /** sets the delay time in samples
  49:../../DaisySP//Source/Utility/delayline.h ****         If a float is passed in, a fractional component will be calculated for interpolating the de
  50:../../DaisySP//Source/Utility/delayline.h ****     */
  51:../../DaisySP//Source/Utility/delayline.h ****     inline void SetDelay(size_t delay)
  52:../../DaisySP//Source/Utility/delayline.h ****     {
  53:../../DaisySP//Source/Utility/delayline.h ****         frac_  = 0.0f;
  54:../../DaisySP//Source/Utility/delayline.h ****         delay_ = delay < max_size ? delay : max_size - 1;
  55:../../DaisySP//Source/Utility/delayline.h ****     }
  56:../../DaisySP//Source/Utility/delayline.h **** 
  57:../../DaisySP//Source/Utility/delayline.h ****     /** sets the delay time in samples
  58:../../DaisySP//Source/Utility/delayline.h ****         If a float is passed in, a fractional component will be calculated for interpolating the de
  59:../../DaisySP//Source/Utility/delayline.h ****     */
  60:../../DaisySP//Source/Utility/delayline.h ****     inline void SetDelay(float delay)
  61:../../DaisySP//Source/Utility/delayline.h ****     {
  62:../../DaisySP//Source/Utility/delayline.h ****         int32_t int_delay = static_cast<int32_t>(delay);
  63:../../DaisySP//Source/Utility/delayline.h ****         frac_             = delay - static_cast<float>(int_delay);
  64:../../DaisySP//Source/Utility/delayline.h ****         delay_ = static_cast<size_t>(int_delay) < max_size ? int_delay
 255              		.loc 11 64 60 view .LVU28
 256 000c 6E4C     		ldr	r4, .L17+4
  63:../../DaisySP//Source/Utility/delayline.h ****         delay_ = static_cast<size_t>(int_delay) < max_size ? int_delay
 257              		.loc 11 63 27 view .LVU29
 258 000e 6F4D     		ldr	r5, .L17+8
 259              	.LBE239:
 260              	.LBE238:
 261              	.LBB244:
 262              	.LBB245:
 263 0010 6F4E     		ldr	r6, .L17+12
 264              	.LBE245:
 265              	.LBE244:
 165:delay-module.cpp ****     float   time_factor_l,
 266              		.loc 12 165 1 view .LVU30
 267 0012 2DED048B 		vpush.64	{d8, d9}
 268              		.cfi_def_cfa_offset 52
 269              		.cfi_offset 80, -52
 270              		.cfi_offset 81, -48
 271              		.cfi_offset 82, -44
ARM GAS  C:\Users\kgpol\AppData\Local\Temp\cc4o6iZe.s 			page 19


 272              		.cfi_offset 83, -40
 273 0016 87B0     		sub	sp, sp, #28
 274              		.cfi_def_cfa_offset 80
 275              		.loc 12 179 33 view .LVU31
 276 0018 FFF7FEFF 		bl	_ZN5daisy13AnalogControl7ProcessEv
 277              	.LVL9:
 180:delay-module.cpp ****     time_factor_r = cv_1.Process();
 278              		.loc 12 180 33 view .LVU32
 279 001c 6D48     		ldr	r0, .L17+16
 179:delay-module.cpp ****     time_factor_r = cv_1.Process();
 280              		.loc 12 179 33 view .LVU33
 281 001e F0EE408A 		vmov.f32	s17, s0
 282              	.LVL10:
 283              		.loc 12 180 5 is_stmt 1 view .LVU34
 284              		.loc 12 180 33 is_stmt 0 view .LVU35
 285 0022 FFF7FEFF 		bl	_ZN5daisy13AnalogControl7ProcessEv
 286              	.LVL11:
 181:delay-module.cpp ****     fdbk_amount = cv_2.Process();
 287              		.loc 12 181 31 view .LVU36
 288 0026 6C48     		ldr	r0, .L17+20
 180:delay-module.cpp ****     time_factor_r = cv_1.Process();
 289              		.loc 12 180 33 view .LVU37
 290 0028 B0EE408A 		vmov.f32	s16, s0
 291              	.LVL12:
 292              		.loc 12 181 5 is_stmt 1 view .LVU38
 293              		.loc 12 181 31 is_stmt 0 view .LVU39
 294 002c FFF7FEFF 		bl	_ZN5daisy13AnalogControl7ProcessEv
 295              	.LVL13:
 182:delay-module.cpp ****     mix = cv_3.Process();
 296              		.loc 12 182 23 view .LVU40
 297 0030 6A48     		ldr	r0, .L17+24
 181:delay-module.cpp ****     fdbk_amount = cv_2.Process();
 298              		.loc 12 181 31 view .LVU41
 299 0032 B0EE409A 		vmov.f32	s18, s0
 300              	.LVL14:
 301              		.loc 12 182 5 is_stmt 1 view .LVU42
 302              		.loc 12 182 23 is_stmt 0 view .LVU43
 303 0036 FFF7FEFF 		bl	_ZN5daisy13AnalogControl7ProcessEv
 304              	.LVL15:
 183:delay-module.cpp ****     cross_fader.SetPos(mix);
 305              		.loc 12 183 5 is_stmt 1 view .LVU44
 306              	.LBB250:
 307              	.LBI250:
  46:../../DaisySP//Source/Dynamics/crossfade.h ****     /** Initializes CrossFade module
  47:../../DaisySP//Source/Dynamics/crossfade.h ****         Defaults
  48:../../DaisySP//Source/Dynamics/crossfade.h ****         - current position = .5
  49:../../DaisySP//Source/Dynamics/crossfade.h ****         - curve = linear
  50:../../DaisySP//Source/Dynamics/crossfade.h ****     */
  51:../../DaisySP//Source/Dynamics/crossfade.h ****     inline void Init(int curve)
  52:../../DaisySP//Source/Dynamics/crossfade.h ****     {
  53:../../DaisySP//Source/Dynamics/crossfade.h ****         pos_   = 0.5f;
  54:../../DaisySP//Source/Dynamics/crossfade.h ****         curve_ = curve < CROSSFADE_LAST ? curve : CROSSFADE_LIN;
  55:../../DaisySP//Source/Dynamics/crossfade.h ****     }
  56:../../DaisySP//Source/Dynamics/crossfade.h **** 
  57:../../DaisySP//Source/Dynamics/crossfade.h ****     /** Initialize with default linear curve 
  58:../../DaisySP//Source/Dynamics/crossfade.h ****     */
  59:../../DaisySP//Source/Dynamics/crossfade.h ****     inline void Init() { Init(CROSSFADE_LIN); }
ARM GAS  C:\Users\kgpol\AppData\Local\Temp\cc4o6iZe.s 			page 20


  60:../../DaisySP//Source/Dynamics/crossfade.h ****     /** processes CrossFade and returns single sample
  61:../../DaisySP//Source/Dynamics/crossfade.h ****     */
  62:../../DaisySP//Source/Dynamics/crossfade.h ****     float Process(float &in1, float &in2);
  63:../../DaisySP//Source/Dynamics/crossfade.h **** 
  64:../../DaisySP//Source/Dynamics/crossfade.h **** 
  65:../../DaisySP//Source/Dynamics/crossfade.h ****     /** Sets position of CrossFade between two input signals
  66:../../DaisySP//Source/Dynamics/crossfade.h ****         Input range: 0 to 1
  67:../../DaisySP//Source/Dynamics/crossfade.h ****     */
  68:../../DaisySP//Source/Dynamics/crossfade.h ****     inline void SetPos(float pos) { pos_ = pos; }
 308              		.loc 1 68 17 view .LVU45
 309              	.LBB251:
 310              		.loc 1 68 37 view .LVU46
 311              	.LBE251:
 312              	.LBE250:
 184:delay-module.cpp **** 
 185:delay-module.cpp ****     delay_l.SetDelay(MAX_DELAY * time_factor_l);
 313              		.loc 12 185 21 is_stmt 0 view .LVU47
 314 003a DFED695A 		vldr.32	s11, .L17+28
 315              	.LBB254:
 316              	.LBB252:
 317              		.loc 1 68 42 view .LVU48
 318 003e 694B     		ldr	r3, .L17+32
 319              	.LBE252:
 320              	.LBE254:
 321              		.loc 12 185 21 view .LVU49
 322 0040 28EEA55A 		vmul.f32	s10, s17, s11
 186:delay-module.cpp ****     delay_r.SetDelay(MAX_DELAY * time_factor_r);
 323              		.loc 12 186 21 view .LVU50
 324 0044 68EE255A 		vmul.f32	s11, s16, s11
 325              	.LBB255:
 326              	.LBB253:
 327              		.loc 1 68 42 view .LVU51
 328 0048 83ED000A 		vstr.32	s0, [r3]
 329              	.LVL16:
 330              		.loc 1 68 42 view .LVU52
 331              	.LBE253:
 332              	.LBE255:
 185:delay-module.cpp ****     delay_r.SetDelay(MAX_DELAY * time_factor_r);
 333              		.loc 12 185 5 is_stmt 1 view .LVU53
 334              	.LBB256:
 335              	.LBI238:
  60:../../DaisySP//Source/Utility/delayline.h ****     {
 336              		.loc 11 60 17 view .LVU54
 337              	.LBB240:
  62:../../DaisySP//Source/Utility/delayline.h ****         frac_             = delay - static_cast<float>(int_delay);
 338              		.loc 11 62 17 is_stmt 0 view .LVU55
 339 004c BDEEC57A 		vcvt.s32.f32	s14, s10
 340              	.LVL17:
  62:../../DaisySP//Source/Utility/delayline.h ****         frac_             = delay - static_cast<float>(int_delay);
 341              		.loc 11 62 17 view .LVU56
 342              	.LBE240:
 343              	.LBE256:
 344              	.LBB257:
 345              	.LBB246:
 346 0050 FDEEE57A 		vcvt.s32.f32	s15, s11
 347              	.LBE246:
 348              	.LBE257:
ARM GAS  C:\Users\kgpol\AppData\Local\Temp\cc4o6iZe.s 			page 21


 349              	.LBB258:
 350              	.LBB241:
 351              		.loc 11 64 60 view .LVU57
 352 0054 17EE107A 		vmov	r7, s14	@ int
  63:../../DaisySP//Source/Utility/delayline.h ****         delay_ = static_cast<size_t>(int_delay) < max_size ? int_delay
 353              		.loc 11 63 37 view .LVU58
 354 0058 B8EEC76A 		vcvt.f32.s32	s12, s14
 355              	.LBE241:
 356              	.LBE258:
 357              	.LBB259:
 358              	.LBB247:
 359              		.loc 11 64 60 view .LVU59
 360 005c 17EE903A 		vmov	r3, s15	@ int
  63:../../DaisySP//Source/Utility/delayline.h ****         delay_ = static_cast<size_t>(int_delay) < max_size ? int_delay
 361              		.loc 11 63 37 view .LVU60
 362 0060 F8EEE76A 		vcvt.f32.s32	s13, s15
 363              	.LBE247:
 364              	.LBE259:
 365              	.LBB260:
 366              	.LBB242:
 367              		.loc 11 64 60 view .LVU61
 368 0064 A742     		cmp	r7, r4
  63:../../DaisySP//Source/Utility/delayline.h ****         delay_ = static_cast<size_t>(int_delay) < max_size ? int_delay
 369              		.loc 11 63 35 view .LVU62
 370 0066 35EE465A 		vsub.f32	s10, s10, s12
 371              	.LVL18:
 372              		.loc 11 64 60 view .LVU63
 373 006a 28BF     		it	cs
 374 006c 2746     		movcs	r7, r4
 375              	.LBE242:
 376              	.LBE260:
 377              	.LBB261:
 378              	.LBB248:
 379 006e A342     		cmp	r3, r4
  63:../../DaisySP//Source/Utility/delayline.h ****         delay_ = static_cast<size_t>(int_delay) < max_size ? int_delay
 380              		.loc 11 63 35 view .LVU64
 381 0070 75EEE65A 		vsub.f32	s11, s11, s13
 382              		.loc 11 64 60 view .LVU65
 383 0074 28BF     		it	cs
 384 0076 2346     		movcs	r3, r4
 385              	.LBE248:
 386              	.LBE261:
 387              	.LBB262:
 388              	.LBB243:
  63:../../DaisySP//Source/Utility/delayline.h ****         delay_ = static_cast<size_t>(int_delay) < max_size ? int_delay
 389              		.loc 11 63 27 view .LVU66
 390 0078 85ED005A 		vstr.32	s10, [r5]
 391              		.loc 11 64 16 view .LVU67
 392 007c AF60     		str	r7, [r5, #8]
 393              	.LVL19:
 394              		.loc 11 64 16 view .LVU68
 395              	.LBE243:
 396              	.LBE262:
 397              		.loc 12 186 5 is_stmt 1 view .LVU69
 398              	.LBB263:
 399              	.LBI244:
  60:../../DaisySP//Source/Utility/delayline.h ****     {
ARM GAS  C:\Users\kgpol\AppData\Local\Temp\cc4o6iZe.s 			page 22


 400              		.loc 11 60 17 view .LVU70
 401              	.LBB249:
  63:../../DaisySP//Source/Utility/delayline.h ****         delay_ = static_cast<size_t>(int_delay) < max_size ? int_delay
 402              		.loc 11 63 27 is_stmt 0 view .LVU71
 403 007e C6ED005A 		vstr.32	s11, [r6]
 404              		.loc 11 64 16 view .LVU72
 405 0082 B360     		str	r3, [r6, #8]
 406              	.LVL20:
 407              		.loc 11 64 16 view .LVU73
 408              	.LBE249:
 409              	.LBE263:
 187:delay-module.cpp **** 
 188:delay-module.cpp ****     for(size_t i = 0; i < size; i += 2)
 410              		.loc 12 188 5 is_stmt 1 view .LVU74
 411              	.LBB264:
 412              		.loc 12 188 25 view .LVU75
 413 0084 BAF1000F 		cmp	r10, #0
 414 0088 00F09780 		beq	.L9
 415 008c 0AF1FF3A 		add	r10, r10, #-1
 416              	.LVL21:
 417              		.loc 12 188 25 is_stmt 0 view .LVU76
 418 0090 1C46     		mov	r4, r3
 419              	.LBB265:
 420              	.LBB266:
  65:../../DaisySP//Source/Utility/delayline.h ****                                                            : max_size - 1;
  66:../../DaisySP//Source/Utility/delayline.h ****     }
  67:../../DaisySP//Source/Utility/delayline.h **** 
  68:../../DaisySP//Source/Utility/delayline.h ****     /** writes the sample of type T to the delay line, and advances the write ptr
  69:../../DaisySP//Source/Utility/delayline.h ****     */
  70:../../DaisySP//Source/Utility/delayline.h ****     inline void Write(const T sample)
  71:../../DaisySP//Source/Utility/delayline.h ****     {
  72:../../DaisySP//Source/Utility/delayline.h ****         line_[write_ptr_] = sample;
  73:../../DaisySP//Source/Utility/delayline.h ****         write_ptr_        = (write_ptr_ - 1 + max_size) % max_size;
  74:../../DaisySP//Source/Utility/delayline.h ****     }
  75:../../DaisySP//Source/Utility/delayline.h **** 
  76:../../DaisySP//Source/Utility/delayline.h ****     /** returns the next sample of type T in the delay line, interpolated if necessary.
  77:../../DaisySP//Source/Utility/delayline.h ****     */
  78:../../DaisySP//Source/Utility/delayline.h ****     inline const T Read() const
  79:../../DaisySP//Source/Utility/delayline.h ****     {
  80:../../DaisySP//Source/Utility/delayline.h ****         T a = line_[(write_ptr_ + delay_) % max_size];
 421              		.loc 11 80 22 view .LVU77
 422 0092 7268     		ldr	r2, [r6, #4]
 423 0094 4FEA5A03 		lsr	r3, r10, #1
 424              	.LBE266:
 425              	.LBE265:
 426              	.LBB278:
 427              	.LBB279:
 428 0098 4FF0000A 		mov	r10, #0
 429              	.LVL22:
 430              		.loc 11 80 22 view .LVU78
 431 009c 0193     		str	r3, [sp, #4]
 432 009e 6B68     		ldr	r3, [r5, #4]
 433 00a0 CDF800A0 		str	r10, [sp]
 434 00a4 CA46     		mov	r10, r9
 435 00a6 1946     		mov	r1, r3
 436 00a8 C146     		mov	r9, r8
 437              	.LVL23:
ARM GAS  C:\Users\kgpol\AppData\Local\Temp\cc4o6iZe.s 			page 23


 438              		.loc 11 80 22 view .LVU79
 439 00aa 05E0     		b	.L11
 440              	.LVL24:
 441              	.L16:
 442              		.loc 11 80 22 view .LVU80
 443              	.LBE279:
 444              	.LBE278:
 445              	.LBB292:
 446              	.LBB267:
 447              		.loc 11 80 35 view .LVU81
 448 00ac B468     		ldr	r4, [r6, #8]
  81:../../DaisySP//Source/Utility/delayline.h ****         T b = line_[(write_ptr_ + delay_ + 1) % max_size];
  82:../../DaisySP//Source/Utility/delayline.h ****         return a + (b - a) * frac_;
 449              		.loc 11 82 30 view .LVU82
 450 00ae D6ED005A 		vldr.32	s11, [r6]
 451              	.LBE267:
 452              	.LBE292:
 453              	.LBB293:
 454              	.LBB280:
  80:../../DaisySP//Source/Utility/delayline.h ****         T b = line_[(write_ptr_ + delay_ + 1) % max_size];
 455              		.loc 11 80 35 view .LVU83
 456 00b2 AF68     		ldr	r7, [r5, #8]
 457              		.loc 11 82 30 view .LVU84
 458 00b4 95ED005A 		vldr.32	s10, [r5]
 459              	.LVL25:
 460              	.L11:
 461              		.loc 11 82 30 view .LVU85
 462              	.LBE280:
 463              	.LBE293:
 189:delay-module.cpp ****     {
 190:delay-module.cpp ****         // Read from the inputs and delay line
 191:delay-module.cpp ****         sig_in_l = in[LEFT];
 464              		.loc 12 191 9 is_stmt 1 discriminator 2 view .LVU86
 465              	.LBB294:
 466              	.LBB281:
  80:../../DaisySP//Source/Utility/delayline.h ****         T b = line_[(write_ptr_ + delay_ + 1) % max_size];
 467              		.loc 11 80 43 is_stmt 0 discriminator 2 view .LVU87
 468 00b8 DFF82CB1 		ldr	fp, .L17+36
  80:../../DaisySP//Source/Utility/delayline.h ****         T b = line_[(write_ptr_ + delay_ + 1) % max_size];
 469              		.loc 11 80 33 discriminator 2 view .LVU88
 470 00bc 0F44     		add	r7, r7, r1
 471              	.LBE281:
 472              	.LBE294:
 473              	.LBB295:
 474              	.LBB268:
 475 00be 1444     		add	r4, r4, r2
 476              	.LBE268:
 477              	.LBE295:
 188:delay-module.cpp ****     {
 478              		.loc 12 188 25 discriminator 2 view .LVU89
 479 00c0 09F10809 		add	r9, r9, #8
 480              	.LBB296:
 481              	.LBB282:
  81:../../DaisySP//Source/Utility/delayline.h ****         return a + (b - a) * frac_;
 482              		.loc 11 81 42 discriminator 2 view .LVU90
 483 00c4 07F1010E 		add	lr, r7, #1
  80:../../DaisySP//Source/Utility/delayline.h ****         T b = line_[(write_ptr_ + delay_ + 1) % max_size];
ARM GAS  C:\Users\kgpol\AppData\Local\Temp\cc4o6iZe.s 			page 24


 484              		.loc 11 80 43 discriminator 2 view .LVU91
 485 00c8 ABFB0730 		umull	r3, r0, fp, r7
 486              	.LBE282:
 487              	.LBE296:
 488              	.LBB297:
 489              	.LBB269:
  81:../../DaisySP//Source/Utility/delayline.h ****         return a + (b - a) * frac_;
 490              		.loc 11 81 42 discriminator 2 view .LVU92
 491 00cc 04F1010C 		add	ip, r4, #1
  80:../../DaisySP//Source/Utility/delayline.h ****         T b = line_[(write_ptr_ + delay_ + 1) % max_size];
 492              		.loc 11 80 43 discriminator 2 view .LVU93
 493 00d0 ABFB0432 		umull	r3, r2, fp, r4
 494              	.LBE269:
 495              	.LBE297:
 496              	.LBB298:
 497              	.LBB283:
 498 00d4 800C     		lsrs	r0, r0, #18
 499              	.LBE283:
 500              	.LBE298:
 188:delay-module.cpp ****     {
 501              		.loc 12 188 25 discriminator 2 view .LVU94
 502 00d6 0AF1080A 		add	r10, r10, #8
 503              	.LBB299:
 504              	.LBB270:
  80:../../DaisySP//Source/Utility/delayline.h ****         T b = line_[(write_ptr_ + delay_ + 1) % max_size];
 505              		.loc 11 80 43 discriminator 2 view .LVU95
 506 00da 930C     		lsrs	r3, r2, #18
 507              	.LBE270:
 508              	.LBE299:
 509              	.LBB300:
 510              	.LBB284:
  81:../../DaisySP//Source/Utility/delayline.h ****         return a + (b - a) * frac_;
 511              		.loc 11 81 47 discriminator 2 view .LVU96
 512 00dc ABFB0E21 		umull	r2, r1, fp, lr
 513              	.LBE284:
 514              	.LBE300:
 515              	.LBB301:
 516              	.LBB271:
 517 00e0 ABFB0C82 		umull	r8, r2, fp, ip
 518              	.LBE271:
 519              	.LBE301:
 520              	.LBB302:
 521              	.LBB285:
  80:../../DaisySP//Source/Utility/delayline.h ****         T b = line_[(write_ptr_ + delay_ + 1) % max_size];
 522              		.loc 11 80 43 discriminator 2 view .LVU97
 523 00e4 DFF80481 		ldr	r8, .L17+40
  81:../../DaisySP//Source/Utility/delayline.h ****         return a + (b - a) * frac_;
 524              		.loc 11 81 47 discriminator 2 view .LVU98
 525 00e8 890C     		lsrs	r1, r1, #18
 526              	.LBE285:
 527              	.LBE302:
 528              	.LBB303:
 529              	.LBB272:
 530 00ea 920C     		lsrs	r2, r2, #18
  80:../../DaisySP//Source/Utility/delayline.h ****         T b = line_[(write_ptr_ + delay_ + 1) % max_size];
 531              		.loc 11 80 43 discriminator 2 view .LVU99
 532 00ec 08FB1344 		mls	r4, r8, r3, r4
ARM GAS  C:\Users\kgpol\AppData\Local\Temp\cc4o6iZe.s 			page 25


 533              	.LBE272:
 534              	.LBE303:
 535              	.LBB304:
 536              	.LBB286:
  81:../../DaisySP//Source/Utility/delayline.h ****         return a + (b - a) * frac_;
 537              		.loc 11 81 47 discriminator 2 view .LVU100
 538 00f0 08FB11E1 		mls	r1, r8, r1, lr
 539              	.LBE286:
 540              	.LBE304:
 541              	.LBB305:
 542              	.LBB273:
 543 00f4 08FB12C2 		mls	r2, r8, r2, ip
  80:../../DaisySP//Source/Utility/delayline.h ****         T b = line_[(write_ptr_ + delay_ + 1) % max_size];
 544              		.loc 11 80 11 discriminator 2 view .LVU101
 545 00f8 06EB8404 		add	r4, r6, r4, lsl #2
 546              	.LBE273:
 547              	.LBE305:
 548              	.LBB306:
 549              	.LBB287:
  80:../../DaisySP//Source/Utility/delayline.h ****         T b = line_[(write_ptr_ + delay_ + 1) % max_size];
 550              		.loc 11 80 43 discriminator 2 view .LVU102
 551 00fc 08FB1070 		mls	r0, r8, r0, r7
  81:../../DaisySP//Source/Utility/delayline.h ****         return a + (b - a) * frac_;
 552              		.loc 11 81 11 discriminator 2 view .LVU103
 553 0100 05EB8101 		add	r1, r5, r1, lsl #2
 554              	.LBE287:
 555              	.LBE306:
 556              	.LBB307:
 557              	.LBB274:
 558 0104 06EB8202 		add	r2, r6, r2, lsl #2
  80:../../DaisySP//Source/Utility/delayline.h ****         T b = line_[(write_ptr_ + delay_ + 1) % max_size];
 559              		.loc 11 80 11 discriminator 2 view .LVU104
 560 0108 D4ED037A 		vldr.32	s15, [r4, #12]
 561              	.LBE274:
 562              	.LBE307:
 563              	.LBB308:
 564              	.LBB288:
 565 010c 05EB8000 		add	r0, r5, r0, lsl #2
 566              		.loc 11 82 23 discriminator 2 view .LVU105
 567 0110 91ED036A 		vldr.32	s12, [r1, #12]
 568              	.LBE288:
 569              	.LBE308:
 570              	.LBB309:
 571              	.LBB275:
 572 0114 D2ED036A 		vldr.32	s13, [r2, #12]
 573              	.LBE275:
 574              	.LBE309:
 192:delay-module.cpp ****         sig_in_r = in[RIGHT];
 193:delay-module.cpp ****         del_out_l = delay_l.Read();
 194:delay-module.cpp ****         del_out_r = delay_r.Read();
 195:delay-module.cpp **** 
 196:delay-module.cpp ****         // Calculate output and feedback
 197:delay-module.cpp ****         sig_out_l  = cross_fader.Process(sig_in_l, del_out_l);
 575              		.loc 12 197 41 discriminator 2 view .LVU106
 576 0118 04A9     		add	r1, sp, #16
 577              	.LBB310:
 578              	.LBB289:
ARM GAS  C:\Users\kgpol\AppData\Local\Temp\cc4o6iZe.s 			page 26


  80:../../DaisySP//Source/Utility/delayline.h ****         T b = line_[(write_ptr_ + delay_ + 1) % max_size];
 579              		.loc 11 80 11 discriminator 2 view .LVU107
 580 011a 90ED037A 		vldr.32	s14, [r0, #12]
 581              	.LBE289:
 582              	.LBE310:
 583              		.loc 12 197 41 discriminator 2 view .LVU108
 584 011e 02AA     		add	r2, sp, #8
 585              	.LBB311:
 586              	.LBB276:
 587              		.loc 11 82 23 discriminator 2 view .LVU109
 588 0120 76EEE76A 		vsub.f32	s13, s13, s15
 589              	.LBE276:
 590              	.LBE311:
 191:delay-module.cpp ****         sig_in_r = in[RIGHT];
 591              		.loc 12 191 18 discriminator 2 view .LVU110
 592 0124 5AF8080C 		ldr	r0, [r10, #-8]	@ float
 593              	.LBB312:
 594              	.LBB290:
 595              		.loc 11 82 23 discriminator 2 view .LVU111
 596 0128 36EE476A 		vsub.f32	s12, s12, s14
 597              	.LBE290:
 598              	.LBE312:
 191:delay-module.cpp ****         sig_in_r = in[RIGHT];
 599              		.loc 12 191 18 discriminator 2 view .LVU112
 600 012c 0490     		str	r0, [sp, #16]	@ float
 601              	.LBB313:
 602              	.LBB277:
 603              		.loc 11 82 30 discriminator 2 view .LVU113
 604 012e E6EEA57A 		vfma.f32	s15, s13, s11
 605              	.LBE277:
 606              	.LBE313:
 192:delay-module.cpp ****         sig_in_r = in[RIGHT];
 607              		.loc 12 192 18 discriminator 2 view .LVU114
 608 0132 5AF8040C 		ldr	r0, [r10, #-4]	@ float
 609              	.LBB314:
 610              	.LBB291:
 611              		.loc 11 82 30 discriminator 2 view .LVU115
 612 0136 A6EE057A 		vfma.f32	s14, s12, s10
 613              	.LBE291:
 614              	.LBE314:
 192:delay-module.cpp ****         sig_in_r = in[RIGHT];
 615              		.loc 12 192 9 is_stmt 1 discriminator 2 view .LVU116
 192:delay-module.cpp ****         sig_in_r = in[RIGHT];
 616              		.loc 12 192 18 is_stmt 0 discriminator 2 view .LVU117
 617 013a 0590     		str	r0, [sp, #20]	@ float
 193:delay-module.cpp ****         del_out_r = delay_r.Read();
 618              		.loc 12 193 9 is_stmt 1 discriminator 2 view .LVU118
 619              	.LVL26:
 620              	.LBB315:
 621              	.LBI278:
  78:../../DaisySP//Source/Utility/delayline.h ****     {
 622              		.loc 11 78 20 discriminator 2 view .LVU119
  78:../../DaisySP//Source/Utility/delayline.h ****     {
 623              		.loc 11 78 20 is_stmt 0 discriminator 2 view .LVU120
 624              	.LBE315:
 194:delay-module.cpp **** 
 625              		.loc 12 194 9 is_stmt 1 discriminator 2 view .LVU121
ARM GAS  C:\Users\kgpol\AppData\Local\Temp\cc4o6iZe.s 			page 27


 626              	.LBB316:
 627              	.LBI265:
  78:../../DaisySP//Source/Utility/delayline.h ****     {
 628              		.loc 11 78 20 discriminator 2 view .LVU122
  78:../../DaisySP//Source/Utility/delayline.h ****     {
 629              		.loc 11 78 20 is_stmt 0 discriminator 2 view .LVU123
 630              	.LBE316:
 631              		.loc 12 197 9 is_stmt 1 discriminator 2 view .LVU124
 632              		.loc 12 197 41 is_stmt 0 discriminator 2 view .LVU125
 633 013c 2948     		ldr	r0, .L17+32
 194:delay-module.cpp **** 
 634              		.loc 12 194 19 discriminator 2 view .LVU126
 635 013e CDED037A 		vstr.32	s15, [sp, #12]
 193:delay-module.cpp ****         del_out_r = delay_r.Read();
 636              		.loc 12 193 19 discriminator 2 view .LVU127
 637 0142 8DED027A 		vstr.32	s14, [sp, #8]
 638              		.loc 12 197 41 discriminator 2 view .LVU128
 639 0146 FFF7FEFF 		bl	_ZN7daisysp9CrossFade7ProcessERfS1_
 640              	.LVL27:
 198:delay-module.cpp ****         feedback_l = (del_out_l * fdbk_amount) + sig_in_l;
 641              		.loc 12 198 20 discriminator 2 view .LVU129
 642 014a DDED027A 		vldr.32	s15, [sp, #8]
 199:delay-module.cpp ****         sig_out_r  = cross_fader.Process(sig_in_r, del_out_r);
 643              		.loc 12 199 41 discriminator 2 view .LVU130
 644 014e 03AA     		add	r2, sp, #12
 198:delay-module.cpp ****         feedback_l = (del_out_l * fdbk_amount) + sig_in_l;
 645              		.loc 12 198 20 discriminator 2 view .LVU131
 646 0150 DDED048A 		vldr.32	s17, [sp, #16]
 647              		.loc 12 199 41 discriminator 2 view .LVU132
 648 0154 05A9     		add	r1, sp, #20
 649 0156 2348     		ldr	r0, .L17+32
 197:delay-module.cpp ****         feedback_l = (del_out_l * fdbk_amount) + sig_in_l;
 650              		.loc 12 197 41 discriminator 2 view .LVU133
 651 0158 B0EE408A 		vmov.f32	s16, s0
 652              	.LVL28:
 198:delay-module.cpp ****         feedback_l = (del_out_l * fdbk_amount) + sig_in_l;
 653              		.loc 12 198 9 is_stmt 1 discriminator 2 view .LVU134
 198:delay-module.cpp ****         feedback_l = (del_out_l * fdbk_amount) + sig_in_l;
 654              		.loc 12 198 20 is_stmt 0 discriminator 2 view .LVU135
 655 015c E7EE898A 		vfma.f32	s17, s15, s18
 656              	.LVL29:
 657              		.loc 12 199 9 is_stmt 1 discriminator 2 view .LVU136
 658              		.loc 12 199 41 is_stmt 0 discriminator 2 view .LVU137
 659 0160 FFF7FEFF 		bl	_ZN7daisysp9CrossFade7ProcessERfS1_
 660              	.LVL30:
 200:delay-module.cpp ****         feedback_r = (del_out_r * fdbk_amount) + sig_in_r;
 661              		.loc 12 200 9 is_stmt 1 discriminator 2 view .LVU138
 662              		.loc 12 200 20 is_stmt 0 discriminator 2 view .LVU139
 663 0164 9DED037A 		vldr.32	s14, [sp, #12]
 664 0168 DDED057A 		vldr.32	s15, [sp, #20]
 665              	.LBB317:
 666              	.LBB318:
  72:../../DaisySP//Source/Utility/delayline.h ****         write_ptr_        = (write_ptr_ - 1 + max_size) % max_size;
 667              		.loc 11 72 15 discriminator 2 view .LVU140
 668 016c 6A68     		ldr	r2, [r5, #4]
  73:../../DaisySP//Source/Utility/delayline.h ****     }
 669              		.loc 11 73 45 discriminator 2 view .LVU141
ARM GAS  C:\Users\kgpol\AppData\Local\Temp\cc4o6iZe.s 			page 28


 670 016e 1648     		ldr	r0, .L17+4
 671              	.LBE318:
 672              	.LBE317:
 673              		.loc 12 200 20 discriminator 2 view .LVU142
 674 0170 E7EE097A 		vfma.f32	s15, s14, s18
 675              	.LVL31:
 201:delay-module.cpp **** 
 202:delay-module.cpp ****         // Write to the delay
 203:delay-module.cpp ****         delay_l.Write(feedback_l);
 676              		.loc 12 203 9 is_stmt 1 discriminator 2 view .LVU143
 677              	.LBB324:
 678              	.LBI317:
  70:../../DaisySP//Source/Utility/delayline.h ****     {
 679              		.loc 11 70 17 discriminator 2 view .LVU144
 680              	.LBE324:
 681              	.LBB325:
 682              	.LBB326:
  72:../../DaisySP//Source/Utility/delayline.h ****         write_ptr_        = (write_ptr_ - 1 + max_size) % max_size;
 683              		.loc 11 72 15 is_stmt 0 discriminator 2 view .LVU145
 684 0174 7168     		ldr	r1, [r6, #4]
 685              	.LBE326:
 686              	.LBE325:
 687              	.LBB333:
 688              	.LBB319:
  72:../../DaisySP//Source/Utility/delayline.h ****         write_ptr_        = (write_ptr_ - 1 + max_size) % max_size;
 689              		.loc 11 72 27 discriminator 2 view .LVU146
 690 0176 05EB8204 		add	r4, r5, r2, lsl #2
  73:../../DaisySP//Source/Utility/delayline.h ****     }
 691              		.loc 11 73 45 discriminator 2 view .LVU147
 692 017a 0244     		add	r2, r2, r0
 693              	.LBE319:
 694              	.LBE333:
 695              	.LBB334:
 696              	.LBB327:
 697 017c 0844     		add	r0, r0, r1
  72:../../DaisySP//Source/Utility/delayline.h ****         write_ptr_        = (write_ptr_ - 1 + max_size) % max_size;
 698              		.loc 11 72 27 discriminator 2 view .LVU148
 699 017e 06EB8101 		add	r1, r6, r1, lsl #2
 700              	.LBE327:
 701              	.LBE334:
 702              	.LBB335:
 703              	.LBB320:
  73:../../DaisySP//Source/Utility/delayline.h ****     }
 704              		.loc 11 73 57 discriminator 2 view .LVU149
 705 0182 ABFB0237 		umull	r3, r7, fp, r2
  72:../../DaisySP//Source/Utility/delayline.h ****         write_ptr_        = (write_ptr_ - 1 + max_size) % max_size;
 706              		.loc 11 72 27 discriminator 2 view .LVU150
 707 0186 C4ED038A 		vstr.32	s17, [r4, #12]
 708              	.LBE320:
 709              	.LBE335:
 710              	.LBB336:
 711              	.LBB328:
 712 018a C1ED037A 		vstr.32	s15, [r1, #12]
 713              	.LBE328:
 714              	.LBE336:
 715              	.LBB337:
 716              	.LBB321:
ARM GAS  C:\Users\kgpol\AppData\Local\Temp\cc4o6iZe.s 			page 29


  73:../../DaisySP//Source/Utility/delayline.h ****     }
 717              		.loc 11 73 57 discriminator 2 view .LVU151
 718 018e B90C     		lsrs	r1, r7, #18
 719              	.LBE321:
 720              	.LBE337:
 721              	.LBB338:
 722              	.LBB329:
 723 0190 ABFB0034 		umull	r3, r4, fp, r0
 724              	.LBE329:
 725              	.LBE338:
 188:delay-module.cpp ****     {
 726              		.loc 12 188 25 discriminator 2 view .LVU152
 727 0194 009B     		ldr	r3, [sp]
 728              	.LBB339:
 729              	.LBB322:
  73:../../DaisySP//Source/Utility/delayline.h ****     }
 730              		.loc 11 73 57 discriminator 2 view .LVU153
 731 0196 08FB1121 		mls	r1, r8, r1, r2
 732              	.LBE322:
 733              	.LBE339:
 734              	.LBB340:
 735              	.LBB330:
 736 019a A20C     		lsrs	r2, r4, #18
 737              	.LBE330:
 738              	.LBE340:
 188:delay-module.cpp ****     {
 739              		.loc 12 188 25 discriminator 2 view .LVU154
 740 019c 019C     		ldr	r4, [sp, #4]
 741              	.LBB341:
 742              	.LBB323:
  73:../../DaisySP//Source/Utility/delayline.h ****     }
 743              		.loc 11 73 27 discriminator 2 view .LVU155
 744 019e 6960     		str	r1, [r5, #4]
 745              	.LVL32:
  73:../../DaisySP//Source/Utility/delayline.h ****     }
 746              		.loc 11 73 27 discriminator 2 view .LVU156
 747              	.LBE323:
 748              	.LBE341:
 204:delay-module.cpp ****         delay_r.Write(feedback_r);
 749              		.loc 12 204 9 is_stmt 1 discriminator 2 view .LVU157
 750              	.LBB342:
 751              	.LBI325:
  70:../../DaisySP//Source/Utility/delayline.h ****     {
 752              		.loc 11 70 17 discriminator 2 view .LVU158
 753              	.LBB331:
  73:../../DaisySP//Source/Utility/delayline.h ****     }
 754              		.loc 11 73 57 is_stmt 0 discriminator 2 view .LVU159
 755 01a0 08FB1202 		mls	r2, r8, r2, r0
 756              	.LBE331:
 757              	.LBE342:
 188:delay-module.cpp ****     {
 758              		.loc 12 188 25 discriminator 2 view .LVU160
 759 01a4 A342     		cmp	r3, r4
 760 01a6 03F10103 		add	r3, r3, #1
 761              	.LBB343:
 762              	.LBB332:
  73:../../DaisySP//Source/Utility/delayline.h ****     }
ARM GAS  C:\Users\kgpol\AppData\Local\Temp\cc4o6iZe.s 			page 30


 763              		.loc 11 73 27 discriminator 2 view .LVU161
 764 01aa 7260     		str	r2, [r6, #4]
 765              	.LVL33:
  73:../../DaisySP//Source/Utility/delayline.h ****     }
 766              		.loc 11 73 27 discriminator 2 view .LVU162
 767              	.LBE332:
 768              	.LBE343:
 205:delay-module.cpp **** 
 206:delay-module.cpp ****         // Set the outputs
 207:delay-module.cpp ****         out[LEFT]  = sig_out_l;
 769              		.loc 12 207 9 is_stmt 1 discriminator 2 view .LVU163
 770 01ac 0093     		str	r3, [sp]
 771              	.LVL34:
 772              		.loc 12 207 20 is_stmt 0 discriminator 2 view .LVU164
 773 01ae 09ED028A 		vstr.32	s16, [r9, #-8]
 208:delay-module.cpp ****         out[RIGHT] = sig_out_r;
 774              		.loc 12 208 9 is_stmt 1 discriminator 2 view .LVU165
 775              		.loc 12 208 20 is_stmt 0 discriminator 2 view .LVU166
 776 01b2 09ED010A 		vstr.32	s0, [r9, #-4]
 188:delay-module.cpp ****     {
 777              		.loc 12 188 5 is_stmt 1 discriminator 2 view .LVU167
 188:delay-module.cpp ****     {
 778              		.loc 12 188 25 discriminator 2 view .LVU168
 779 01b6 7FF479AF 		bne	.L16
 780              	.LVL35:
 781              	.L9:
 188:delay-module.cpp ****     {
 782              		.loc 12 188 25 is_stmt 0 discriminator 2 view .LVU169
 783              	.LBE264:
 209:delay-module.cpp ****     }
 210:delay-module.cpp **** }
 784              		.loc 12 210 1 view .LVU170
 785 01ba 07B0     		add	sp, sp, #28
 786              		.cfi_def_cfa_offset 52
 787              		@ sp needed
 788 01bc BDEC048B 		vldm	sp!, {d8-d9}
 789              		.cfi_restore 82
 790              		.cfi_restore 83
 791              		.cfi_restore 80
 792              		.cfi_restore 81
 793              		.cfi_def_cfa_offset 36
 794              	.LVL36:
 795              		.loc 12 210 1 view .LVU171
 796 01c0 BDE8F08F 		pop	{r4, r5, r6, r7, r8, r9, r10, fp, pc}
 797              	.L18:
 798              		.align	2
 799              	.L17:
 800 01c4 00000000 		.word	.LANCHOR0
 801 01c8 FFA50E00 		.word	959999
 802 01cc 0C983A00 		.word	_ZL7delay_l
 803 01d0 00000000 		.word	_ZL7delay_r
 804 01d4 00000000 		.word	.LANCHOR1
 805 01d8 00000000 		.word	.LANCHOR2
 806 01dc 00000000 		.word	.LANCHOR3
 807 01e0 00606A49 		.word	1231708160
 808 01e4 00000000 		.word	.LANCHOR4
 809 01e8 73B2E745 		.word	1172812403
ARM GAS  C:\Users\kgpol\AppData\Local\Temp\cc4o6iZe.s 			page 31


 810 01ec 00A60E00 		.word	960000
 811              		.cfi_endproc
 812              	.LFE4688:
 814              		.section	.text.startup.main,"ax",%progbits
 815              		.align	1
 816              		.p2align 2,,3
 817              		.global	main
 818              		.syntax unified
 819              		.thumb
 820              		.thumb_func
 821              		.fpu fpv5-d16
 823              	main:
 824              	.LFB4689:
 211:delay-module.cpp **** 
 212:delay-module.cpp **** int main(void)
 213:delay-module.cpp **** {
 825              		.loc 12 213 1 is_stmt 1 view -0
 826              		.cfi_startproc
 827              		@ args = 0, pretend = 0, frame = 112
 828              		@ frame_needed = 0, uses_anonymous_args = 0
 214:delay-module.cpp ****     // initialize the seed hardware
 215:delay-module.cpp ****     float sample_rate;
 829              		.loc 12 215 5 view .LVU173
 216:delay-module.cpp ****     hw.Configure();
 830              		.loc 12 216 5 view .LVU174
 213:delay-module.cpp ****     // initialize the seed hardware
 831              		.loc 12 213 1 is_stmt 0 view .LVU175
 832 0000 2DE9F041 		push	{r4, r5, r6, r7, r8, lr}
 833              		.cfi_def_cfa_offset 24
 834              		.cfi_offset 4, -24
 835              		.cfi_offset 5, -20
 836              		.cfi_offset 6, -16
 837              		.cfi_offset 7, -12
 838              		.cfi_offset 8, -8
 839              		.cfi_offset 14, -4
 840              	.LBB378:
 841              	.LBB379:
  47:delay-module.cpp ****     adcConfig[1].InitSingle(seed::A1);
 842              		.loc 12 47 25 view .LVU176
 843 0004 0026     		movs	r6, #0
 844              	.LBE379:
 845              	.LBE378:
 846              		.loc 12 216 17 view .LVU177
 847 0006 B548     		ldr	r0, .L58
 848              	.LBB383:
 849              	.LBB380:
  47:delay-module.cpp ****     adcConfig[1].InitSingle(seed::A1);
 850              		.loc 12 47 25 view .LVU178
 851 0008 0225     		movs	r5, #2
  48:delay-module.cpp ****     adcConfig[2].InitSingle(seed::A2);
 852              		.loc 12 48 28 view .LVU179
 853 000a 0327     		movs	r7, #3
  49:delay-module.cpp ****     adcConfig[3].InitSingle(seed::A3);
 854              		.loc 12 49 28 view .LVU180
 855 000c 0124     		movs	r4, #1
 856 000e DFF8F482 		ldr	r8, .L58+40
 857              	.LBE380:
ARM GAS  C:\Users\kgpol\AppData\Local\Temp\cc4o6iZe.s 			page 32


 858              	.LBE383:
 213:delay-module.cpp ****     // initialize the seed hardware
 859              		.loc 12 213 1 view .LVU181
 860 0012 2DED028B 		vpush.64	{d8}
 861              		.cfi_def_cfa_offset 32
 862              		.cfi_offset 80, -32
 863              		.cfi_offset 81, -28
 864 0016 9CB0     		sub	sp, sp, #112
 865              		.cfi_def_cfa_offset 144
 866              		.loc 12 216 17 view .LVU182
 867 0018 FFF7FEFF 		bl	_ZN5daisy9DaisySeed9ConfigureEv
 868              	.LVL37:
 217:delay-module.cpp ****     hw.Init();
 869              		.loc 12 217 5 is_stmt 1 view .LVU183
 870              		.loc 12 217 12 is_stmt 0 view .LVU184
 871 001c 3146     		mov	r1, r6
 872 001e AF48     		ldr	r0, .L58
 873 0020 FFF7FEFF 		bl	_ZN5daisy9DaisySeed4InitEb
 874              	.LVL38:
 218:delay-module.cpp ****     hw.SetAudioSampleRate(SaiHandle::Config::SampleRate::SAI_96KHZ);
 875              		.loc 12 218 5 is_stmt 1 view .LVU185
 876              		.loc 12 218 26 is_stmt 0 view .LVU186
 877 0024 0421     		movs	r1, #4
 878 0026 AD48     		ldr	r0, .L58
 879 0028 FFF7FEFF 		bl	_ZN5daisy9DaisySeed18SetAudioSampleRateENS_9SaiHandle6Config10SampleRateE
 880              	.LVL39:
 219:delay-module.cpp ****     hw.SetAudioBlockSize(16);
 881              		.loc 12 219 5 is_stmt 1 view .LVU187
 882              		.loc 12 219 25 is_stmt 0 view .LVU188
 883 002c 1021     		movs	r1, #16
 884 002e AB48     		ldr	r0, .L58
 885 0030 FFF7FEFF 		bl	_ZN5daisy9DaisySeed17SetAudioBlockSizeEj
 886              	.LVL40:
 220:delay-module.cpp ****     sample_rate = hw.AudioSampleRate();
 887              		.loc 12 220 5 is_stmt 1 view .LVU189
 888              		.loc 12 220 37 is_stmt 0 view .LVU190
 889 0034 A948     		ldr	r0, .L58
 890 0036 FFF7FEFF 		bl	_ZN5daisy9DaisySeed15AudioSampleRateEv
 891              	.LVL41:
 892              	.LBB384:
 893              	.LBB381:
  47:delay-module.cpp ****     adcConfig[1].InitSingle(seed::A1);
 894              		.loc 12 47 25 view .LVU191
 895 003a 8DF82450 		strb	r5, [sp, #36]
 896 003e 8DF82560 		strb	r6, [sp, #37]
 897 0042 2A46     		mov	r2, r5
 898 0044 0999     		ldr	r1, [sp, #36]
 899 0046 0AA8     		add	r0, sp, #40
 900              	.LBE381:
 901              	.LBE384:
 902              		.loc 12 220 37 view .LVU192
 903 0048 B0EE408A 		vmov.f32	s16, s0
 904              	.LVL42:
 221:delay-module.cpp **** 
 222:delay-module.cpp ****     // other initializations
 223:delay-module.cpp ****     InitAnalogControls(sample_rate);
 905              		.loc 12 223 5 is_stmt 1 view .LVU193
ARM GAS  C:\Users\kgpol\AppData\Local\Temp\cc4o6iZe.s 			page 33


 906              	.LBB385:
 907              	.LBI378:
  42:delay-module.cpp **** {
 908              		.loc 12 42 13 view .LVU194
 909              	.LBB382:
  45:delay-module.cpp **** 	AdcChannelConfig adcConfig[num_adc_channels];
 910              		.loc 12 45 5 view .LVU195
  46:delay-module.cpp **** 	adcConfig[0].InitSingle(seed::A0);
 911              		.loc 12 46 2 view .LVU196
  47:delay-module.cpp ****     adcConfig[1].InitSingle(seed::A1);
 912              		.loc 12 47 2 view .LVU197
  47:delay-module.cpp ****     adcConfig[1].InitSingle(seed::A1);
 913              		.loc 12 47 25 is_stmt 0 view .LVU198
 914 004c FFF7FEFF 		bl	_ZN5daisy16AdcChannelConfig10InitSingleE12dsy_gpio_pinNS0_15ConversionSpeedE
 915              	.LVL43:
  48:delay-module.cpp ****     adcConfig[2].InitSingle(seed::A2);
 916              		.loc 12 48 5 is_stmt 1 view .LVU199
  48:delay-module.cpp ****     adcConfig[2].InitSingle(seed::A2);
 917              		.loc 12 48 28 is_stmt 0 view .LVU200
 918 0050 8DF82060 		strb	r6, [sp, #32]
 919 0054 2A46     		mov	r2, r5
 920 0056 8DF82170 		strb	r7, [sp, #33]
 921 005a 0DF13A00 		add	r0, sp, #58
 922 005e 0899     		ldr	r1, [sp, #32]
 923 0060 FFF7FEFF 		bl	_ZN5daisy16AdcChannelConfig10InitSingleE12dsy_gpio_pinNS0_15ConversionSpeedE
 924              	.LVL44:
  49:delay-module.cpp ****     adcConfig[3].InitSingle(seed::A3);
 925              		.loc 12 49 5 is_stmt 1 view .LVU201
  49:delay-module.cpp ****     adcConfig[3].InitSingle(seed::A3);
 926              		.loc 12 49 28 is_stmt 0 view .LVU202
 927 0064 8DF81C40 		strb	r4, [sp, #28]
 928 0068 8DF81D40 		strb	r4, [sp, #29]
 929 006c 2A46     		mov	r2, r5
 930 006e 0799     		ldr	r1, [sp, #28]
 931 0070 13A8     		add	r0, sp, #76
 932 0072 FFF7FEFF 		bl	_ZN5daisy16AdcChannelConfig10InitSingleE12dsy_gpio_pinNS0_15ConversionSpeedE
 933              	.LVL45:
  50:delay-module.cpp **** 	hw.adc.Init(adcConfig, num_adc_channels);
 934              		.loc 12 50 5 is_stmt 1 view .LVU203
  50:delay-module.cpp **** 	hw.adc.Init(adcConfig, num_adc_channels);
 935              		.loc 12 50 28 is_stmt 0 view .LVU204
 936 0076 0723     		movs	r3, #7
 937 0078 8DF81860 		strb	r6, [sp, #24]
 938 007c 2A46     		mov	r2, r5
 939 007e 8DF81930 		strb	r3, [sp, #25]
 940 0082 0DF15E00 		add	r0, sp, #94
 941 0086 0699     		ldr	r1, [sp, #24]
 942 0088 FFF7FEFF 		bl	_ZN5daisy16AdcChannelConfig10InitSingleE12dsy_gpio_pinNS0_15ConversionSpeedE
 943              	.LVL46:
  51:delay-module.cpp **** 	hw.adc.Start();
 944              		.loc 12 51 2 is_stmt 1 view .LVU205
  51:delay-module.cpp **** 	hw.adc.Start();
 945              		.loc 12 51 13 is_stmt 0 view .LVU206
 946 008c 0423     		movs	r3, #4
 947 008e 0AA9     		add	r1, sp, #40
 948 0090 9348     		ldr	r0, .L58+4
 949 0092 1A46     		mov	r2, r3
ARM GAS  C:\Users\kgpol\AppData\Local\Temp\cc4o6iZe.s 			page 34


 950 0094 FFF7FEFF 		bl	_ZN5daisy9AdcHandle4InitEPNS_16AdcChannelConfigEjNS0_12OverSamplingE
 951              	.LVL47:
  52:delay-module.cpp **** 
 952              		.loc 12 52 2 is_stmt 1 view .LVU207
  52:delay-module.cpp **** 
 953              		.loc 12 52 14 is_stmt 0 view .LVU208
 954 0098 9148     		ldr	r0, .L58+4
 955 009a FFF7FEFF 		bl	_ZN5daisy9AdcHandle5StartEv
 956              	.LVL48:
  55:delay-module.cpp ****     cv_1.Init(hw.adc.GetPtr(1), sample_rate, true, false, 0.1f);
 957              		.loc 12 55 2 is_stmt 1 view .LVU209
  55:delay-module.cpp ****     cv_1.Init(hw.adc.GetPtr(1), sample_rate, true, false, 0.1f);
 958              		.loc 12 55 11 is_stmt 0 view .LVU210
 959 009e 3146     		mov	r1, r6
 960 00a0 8F48     		ldr	r0, .L58+4
 961 00a2 FFF7FEFF 		bl	_ZNK5daisy9AdcHandle6GetPtrEh
 962              	.LVL49:
 963 00a6 3346     		mov	r3, r6
 964 00a8 2246     		mov	r2, r4
 965 00aa B0EE480A 		vmov.f32	s0, s16
 966 00ae 0146     		mov	r1, r0
 967 00b0 DFED8C0A 		vldr.32	s1, .L58+8
 968 00b4 8C48     		ldr	r0, .L58+12
 969 00b6 FFF7FEFF 		bl	_ZN5daisy13AnalogControl4InitEPtfbbf
 970              	.LVL50:
  56:delay-module.cpp ****     cv_2.Init(hw.adc.GetPtr(2), sample_rate, true, false, 0.1f);
 971              		.loc 12 56 5 is_stmt 1 view .LVU211
  56:delay-module.cpp ****     cv_2.Init(hw.adc.GetPtr(2), sample_rate, true, false, 0.1f);
 972              		.loc 12 56 14 is_stmt 0 view .LVU212
 973 00ba 2146     		mov	r1, r4
 974 00bc 8848     		ldr	r0, .L58+4
 975 00be FFF7FEFF 		bl	_ZNK5daisy9AdcHandle6GetPtrEh
 976              	.LVL51:
 977 00c2 3346     		mov	r3, r6
 978 00c4 2246     		mov	r2, r4
 979 00c6 B0EE480A 		vmov.f32	s0, s16
 980 00ca 0146     		mov	r1, r0
 981 00cc DFED850A 		vldr.32	s1, .L58+8
 982 00d0 8648     		ldr	r0, .L58+16
 983 00d2 FFF7FEFF 		bl	_ZN5daisy13AnalogControl4InitEPtfbbf
 984              	.LVL52:
  57:delay-module.cpp ****     cv_3.Init(hw.adc.GetPtr(3), sample_rate, true, false, 0.1f);
 985              		.loc 12 57 5 is_stmt 1 view .LVU213
  57:delay-module.cpp ****     cv_3.Init(hw.adc.GetPtr(3), sample_rate, true, false, 0.1f);
 986              		.loc 12 57 14 is_stmt 0 view .LVU214
 987 00d6 2946     		mov	r1, r5
 988 00d8 8148     		ldr	r0, .L58+4
 989 00da FFF7FEFF 		bl	_ZNK5daisy9AdcHandle6GetPtrEh
 990              	.LVL53:
 991 00de 3346     		mov	r3, r6
 992 00e0 2246     		mov	r2, r4
 993 00e2 B0EE480A 		vmov.f32	s0, s16
 994 00e6 0146     		mov	r1, r0
 995 00e8 DFED7E0A 		vldr.32	s1, .L58+8
 996 00ec 8048     		ldr	r0, .L58+20
 997 00ee FFF7FEFF 		bl	_ZN5daisy13AnalogControl4InitEPtfbbf
 998              	.LVL54:
ARM GAS  C:\Users\kgpol\AppData\Local\Temp\cc4o6iZe.s 			page 35


  58:delay-module.cpp **** }
 999              		.loc 12 58 5 is_stmt 1 view .LVU215
  58:delay-module.cpp **** }
 1000              		.loc 12 58 14 is_stmt 0 view .LVU216
 1001 00f2 3946     		mov	r1, r7
 1002 00f4 7A48     		ldr	r0, .L58+4
 1003 00f6 FFF7FEFF 		bl	_ZNK5daisy9AdcHandle6GetPtrEh
 1004              	.LVL55:
 1005 00fa DFED7A0A 		vldr.32	s1, .L58+8
 1006 00fe B0EE480A 		vmov.f32	s0, s16
 1007 0102 3346     		mov	r3, r6
 1008 0104 2246     		mov	r2, r4
 1009 0106 0146     		mov	r1, r0
 1010 0108 7A48     		ldr	r0, .L58+24
 1011 010a FFF7FEFF 		bl	_ZN5daisy13AnalogControl4InitEPtfbbf
 1012              	.LVL56:
  58:delay-module.cpp **** }
 1013              		.loc 12 58 14 view .LVU217
 1014              	.LBE382:
 1015              	.LBE385:
 224:delay-module.cpp ****     InitDac();
 1016              		.loc 12 224 5 is_stmt 1 view .LVU218
 1017              	.LBB386:
 1018              	.LBI386:
  61:delay-module.cpp **** {
 1019              		.loc 12 61 13 view .LVU219
 1020              	.LBB387:
  63:delay-module.cpp **** 	dac_cfg.bitdepth = DacHandle::BitDepth::BITS_12;
 1021              		.loc 12 63 2 view .LVU220
  64:delay-module.cpp **** 	dac_cfg.buff_state = DacHandle::BufferState::ENABLED;
 1022              		.loc 12 64 2 view .LVU221
  68:delay-module.cpp **** 	hw.dac.WriteValue(DacHandle::Channel::ONE, 0);
 1023              		.loc 12 68 13 is_stmt 0 view .LVU222
 1024 010e 0AA9     		add	r1, sp, #40
 1025 0110 7948     		ldr	r0, .L58+28
 1026 0112 7A4F     		ldr	r7, .L58+32
  65:delay-module.cpp **** 	dac_cfg.mode = DacHandle::Mode::POLLING;
 1027              		.loc 12 65 21 view .LVU223
 1028 0114 CDE90D46 		strd	r4, r6, [sp, #52]
  66:delay-module.cpp **** 	dac_cfg.chn = DacHandle::Channel::BOTH;
 1029              		.loc 12 66 2 is_stmt 1 view .LVU224
  67:delay-module.cpp **** 	hw.dac.Init(dac_cfg);
 1030              		.loc 12 67 14 is_stmt 0 view .LVU225
 1031 0118 CDE90B56 		strd	r5, r6, [sp, #44]
  68:delay-module.cpp **** 	hw.dac.WriteValue(DacHandle::Channel::ONE, 0);
 1032              		.loc 12 68 2 is_stmt 1 view .LVU226
  68:delay-module.cpp **** 	hw.dac.WriteValue(DacHandle::Channel::ONE, 0);
 1033              		.loc 12 68 13 is_stmt 0 view .LVU227
 1034 011c FFF7FEFF 		bl	_ZN5daisy9DacHandle4InitERKNS0_6ConfigE
 1035              	.LVL57:
  69:delay-module.cpp **** 	hw.dac.WriteValue(DacHandle::Channel::TWO, 0);
 1036              		.loc 12 69 2 is_stmt 1 view .LVU228
  69:delay-module.cpp **** 	hw.dac.WriteValue(DacHandle::Channel::TWO, 0);
 1037              		.loc 12 69 19 is_stmt 0 view .LVU229
 1038 0120 3246     		mov	r2, r6
 1039 0122 3146     		mov	r1, r6
 1040 0124 7448     		ldr	r0, .L58+28
ARM GAS  C:\Users\kgpol\AppData\Local\Temp\cc4o6iZe.s 			page 36


 1041 0126 FFF7FEFF 		bl	_ZN5daisy9DacHandle10WriteValueENS0_7ChannelEt
 1042              	.LVL58:
  70:delay-module.cpp **** }
 1043              		.loc 12 70 2 is_stmt 1 view .LVU230
  70:delay-module.cpp **** }
 1044              		.loc 12 70 19 is_stmt 0 view .LVU231
 1045 012a 3246     		mov	r2, r6
 1046 012c 2146     		mov	r1, r4
 1047 012e 7248     		ldr	r0, .L58+28
 1048 0130 FFF7FEFF 		bl	_ZN5daisy9DacHandle10WriteValueENS0_7ChannelEt
 1049              	.LVL59:
 1050              	.LBE387:
 1051              	.LBE386:
 225:delay-module.cpp ****     InitGpio();
 1052              		.loc 12 225 5 is_stmt 1 view .LVU232
 1053              	.LBB388:
 1054              	.LBI388:
  84:delay-module.cpp **** {
 1055              		.loc 12 84 13 view .LVU233
 1056              	.LBB389:
  87:delay-module.cpp ****     hold.Init(seed::D27);
 1057              		.loc 12 87 5 view .LVU234
  87:delay-module.cpp ****     hold.Init(seed::D27);
 1058              		.loc 12 87 15 is_stmt 0 view .LVU235
 1059 0134 724B     		ldr	r3, .L58+36
 1060 0136 2246     		mov	r2, r4
 1061 0138 7248     		ldr	r0, .L58+40
 1062 013a 1968     		ldr	r1, [r3]
  97:delay-module.cpp ****     led_2_r.Init(seed::D7, false);
 1063              		.loc 12 97 17 view .LVU236
 1064 013c 0625     		movs	r5, #6
  87:delay-module.cpp ****     hold.Init(seed::D27);
 1065              		.loc 12 87 15 view .LVU237
 1066 013e FFF7FEFF 		bl	_ZN5daisy6GateIn4InitENS_3PinEb
 1067              	.LVL60:
  88:delay-module.cpp **** 
 1068              		.loc 12 88 5 is_stmt 1 view .LVU238
  88:delay-module.cpp **** 
 1069              		.loc 12 88 14 is_stmt 0 view .LVU239
 1070 0142 714B     		ldr	r3, .L58+44
 1071 0144 2246     		mov	r2, r4
 1072 0146 7148     		ldr	r0, .L58+48
 1073 0148 1968     		ldr	r1, [r3]
 1074 014a FFF7FEFF 		bl	_ZN5daisy6GateIn4InitENS_3PinEb
 1075              	.LVL61:
  91:delay-module.cpp ****     switch_2.Init(seed::D11, 1000.0f);
 1076              		.loc 12 91 5 is_stmt 1 view .LVU240
  91:delay-module.cpp ****     switch_2.Init(seed::D11, 1000.0f);
 1077              		.loc 12 91 18 is_stmt 0 view .LVU241
 1078 014e 0923     		movs	r3, #9
 1079 0150 8DF82840 		strb	r4, [sp, #40]
 1080 0154 8DF82930 		strb	r3, [sp, #41]
 1081 0158 9FED6D0A 		vldr.32	s0, .L58+52
 1082 015c 6D48     		ldr	r0, .L58+56
 1083 015e 0A99     		ldr	r1, [sp, #40]
 1084 0160 FFF7FEFF 		bl	_ZN5daisy6Switch4InitE12dsy_gpio_pinf
 1085              	.LVL62:
ARM GAS  C:\Users\kgpol\AppData\Local\Temp\cc4o6iZe.s 			page 37


  92:delay-module.cpp **** 
 1086              		.loc 12 92 5 is_stmt 1 view .LVU242
  92:delay-module.cpp **** 
 1087              		.loc 12 92 18 is_stmt 0 view .LVU243
 1088 0164 0823     		movs	r3, #8
 1089 0166 8DF81440 		strb	r4, [sp, #20]
 1090 016a 8DF81530 		strb	r3, [sp, #21]
 1091 016e 9FED680A 		vldr.32	s0, .L58+52
 1092 0172 6948     		ldr	r0, .L58+60
 1093 0174 0599     		ldr	r1, [sp, #20]
 1094 0176 FFF7FEFF 		bl	_ZN5daisy6Switch4InitE12dsy_gpio_pinf
 1095              	.LVL63:
  95:delay-module.cpp ****     led_1_r.Init(seed::D30, false);
 1096              		.loc 12 95 5 is_stmt 1 view .LVU244
  95:delay-module.cpp ****     led_1_r.Init(seed::D30, false);
 1097              		.loc 12 95 17 is_stmt 0 view .LVU245
 1098 017a 0E23     		movs	r3, #14
 1099 017c 8DF81040 		strb	r4, [sp, #16]
 1100 0180 3246     		mov	r2, r6
 1101 0182 8DF81130 		strb	r3, [sp, #17]
 1102 0186 9FED620A 		vldr.32	s0, .L58+52
 1103 018a 0499     		ldr	r1, [sp, #16]
 1104 018c 6348     		ldr	r0, .L58+64
 1105 018e FFF7FEFF 		bl	_ZN5daisy3Led4InitE12dsy_gpio_pinbf
 1106              	.LVL64:
  96:delay-module.cpp ****     led_2_b.Init(seed::D8, false);
 1107              		.loc 12 96 5 is_stmt 1 view .LVU246
  96:delay-module.cpp ****     led_2_b.Init(seed::D8, false);
 1108              		.loc 12 96 17 is_stmt 0 view .LVU247
 1109 0192 0F23     		movs	r3, #15
 1110 0194 8DF80C40 		strb	r4, [sp, #12]
 1111 0198 3246     		mov	r2, r6
 1112 019a 8DF80D30 		strb	r3, [sp, #13]
 1113 019e 9FED5C0A 		vldr.32	s0, .L58+52
 1114 01a2 0399     		ldr	r1, [sp, #12]
 1115 01a4 5E48     		ldr	r0, .L58+68
 1116 01a6 FFF7FEFF 		bl	_ZN5daisy3Led4InitE12dsy_gpio_pinbf
 1117              	.LVL65:
  97:delay-module.cpp ****     led_2_r.Init(seed::D7, false);
 1118              		.loc 12 97 5 is_stmt 1 view .LVU248
  97:delay-module.cpp ****     led_2_r.Init(seed::D7, false);
 1119              		.loc 12 97 17 is_stmt 0 view .LVU249
 1120 01aa 0B23     		movs	r3, #11
 1121 01ac 8DF80850 		strb	r5, [sp, #8]
 1122 01b0 3246     		mov	r2, r6
 1123 01b2 8DF80930 		strb	r3, [sp, #9]
 1124 01b6 9FED560A 		vldr.32	s0, .L58+52
 1125 01ba 5A48     		ldr	r0, .L58+72
 1126 01bc 0299     		ldr	r1, [sp, #8]
 1127 01be FFF7FEFF 		bl	_ZN5daisy3Led4InitE12dsy_gpio_pinbf
 1128              	.LVL66:
  98:delay-module.cpp **** }
 1129              		.loc 12 98 5 is_stmt 1 view .LVU250
  98:delay-module.cpp **** }
 1130              		.loc 12 98 17 is_stmt 0 view .LVU251
 1131 01c2 0A23     		movs	r3, #10
 1132 01c4 8DF80450 		strb	r5, [sp, #4]
ARM GAS  C:\Users\kgpol\AppData\Local\Temp\cc4o6iZe.s 			page 38


 1133 01c8 3246     		mov	r2, r6
 1134 01ca 8DF80530 		strb	r3, [sp, #5]
 1135 01ce 9FED500A 		vldr.32	s0, .L58+52
 1136 01d2 0199     		ldr	r1, [sp, #4]
 1137 01d4 5448     		ldr	r0, .L58+76
 1138 01d6 FFF7FEFF 		bl	_ZN5daisy3Led4InitE12dsy_gpio_pinbf
 1139              	.LVL67:
  98:delay-module.cpp **** }
 1140              		.loc 12 98 17 view .LVU252
 1141              	.LBE389:
 1142              	.LBE388:
 1143              	.LBB390:
 1144              	.LBB391:
 1145              	.LBB392:
 1146              	.LBB393:
 1147              	.LBB394:
  40:../../DaisySP//Source/Utility/delayline.h ****         {
 1148              		.loc 11 40 29 is_stmt 1 view .LVU253
  42:../../DaisySP//Source/Utility/delayline.h ****         }
 1149              		.loc 11 42 22 is_stmt 0 view .LVU254
 1150 01da 3146     		mov	r1, r6
 1151 01dc 534A     		ldr	r2, .L58+80
 1152 01de 5448     		ldr	r0, .L58+84
 1153 01e0 FFF7FEFF 		bl	memset
 1154              	.LVL68:
  42:../../DaisySP//Source/Utility/delayline.h ****         }
 1155              		.loc 11 42 22 view .LVU255
 1156              	.LBE394:
  44:../../DaisySP//Source/Utility/delayline.h ****         delay_     = 1;
 1157              		.loc 11 44 20 view .LVU256
 1158 01e4 534B     		ldr	r3, .L58+88
 1159              	.LBE393:
 1160              	.LBE392:
 1161              	.LBE391:
 1162              	.LBB397:
 1163              	.LBB398:
 1164              	.LBB399:
 1165              	.LBB400:
  42:../../DaisySP//Source/Utility/delayline.h ****         }
 1166              		.loc 11 42 22 view .LVU257
 1167 01e6 3146     		mov	r1, r6
 1168 01e8 504A     		ldr	r2, .L58+80
 1169 01ea 5348     		ldr	r0, .L58+92
 1170 01ec 4A4D     		ldr	r5, .L58+60
 1171              	.LBE400:
 1172              	.LBE399:
 1173              	.LBE398:
 1174              	.LBE397:
 1175              	.LBB408:
 1176              	.LBB396:
 1177              	.LBB395:
  45:../../DaisySP//Source/Utility/delayline.h ****     }
 1178              		.loc 11 45 20 view .LVU258
 1179 01ee C3E90164 		strd	r6, r4, [r3, #4]
 1180              	.LVL69:
  45:../../DaisySP//Source/Utility/delayline.h ****     }
 1181              		.loc 11 45 20 view .LVU259
ARM GAS  C:\Users\kgpol\AppData\Local\Temp\cc4o6iZe.s 			page 39


 1182              	.LBE395:
 1183              	.LBE396:
 1184              	.LBE408:
 1185              	.LBB409:
 1186              	.LBB405:
 1187              	.LBB402:
 1188              	.LBB401:
  40:../../DaisySP//Source/Utility/delayline.h ****         {
 1189              		.loc 11 40 29 is_stmt 1 view .LVU260
  42:../../DaisySP//Source/Utility/delayline.h ****         }
 1190              		.loc 11 42 22 is_stmt 0 view .LVU261
 1191 01f2 FFF7FEFF 		bl	memset
 1192              	.LVL70:
  42:../../DaisySP//Source/Utility/delayline.h ****         }
 1193              		.loc 11 42 22 view .LVU262
 1194              	.LBE401:
 1195              	.LBE402:
 1196              	.LBE405:
 1197              	.LBE409:
 1198              	.LBB410:
 1199              	.LBB411:
 1200              	.LBB412:
  53:../../DaisySP//Source/Dynamics/crossfade.h ****         curve_ = curve < CROSSFADE_LAST ? curve : CROSSFADE_LIN;
 1201              		.loc 1 53 16 view .LVU263
 1202 01f6 514B     		ldr	r3, .L58+96
 1203              	.LBE412:
 1204              	.LBE411:
 1205              	.LBE410:
 1206              	.LBB417:
 1207              	.LBB406:
 1208              	.LBB403:
  44:../../DaisySP//Source/Utility/delayline.h ****         delay_     = 1;
 1209              		.loc 11 44 20 view .LVU264
 1210 01f8 514A     		ldr	r2, .L58+100
 1211              	.LBE403:
 1212              	.LBE406:
 1213              	.LBE417:
 1214              	.LBB418:
 1215              	.LBB415:
 1216              	.LBB413:
  53:../../DaisySP//Source/Dynamics/crossfade.h ****         curve_ = curve < CROSSFADE_LAST ? curve : CROSSFADE_LIN;
 1217              		.loc 1 53 16 view .LVU265
 1218 01fa 4FF07C50 		mov	r0, #1056964608
  54:../../DaisySP//Source/Dynamics/crossfade.h ****     }
 1219              		.loc 1 54 16 view .LVU266
 1220 01fe 1E71     		strb	r6, [r3, #4]
  53:../../DaisySP//Source/Dynamics/crossfade.h ****         curve_ = curve < CROSSFADE_LAST ? curve : CROSSFADE_LIN;
 1221              		.loc 1 53 16 view .LVU267
 1222 0200 1860     		str	r0, [r3]	@ float
 1223              	.LBE413:
 1224              	.LBE415:
 1225              	.LBE418:
 1226              	.LBE390:
 226:delay-module.cpp ****     InitDspModules();
 227:delay-module.cpp **** 
 228:delay-module.cpp ****     // start the audio callback
 229:delay-module.cpp ****     hw.StartAudio(AudioCallback);
ARM GAS  C:\Users\kgpol\AppData\Local\Temp\cc4o6iZe.s 			page 40


 1227              		.loc 12 229 18 view .LVU268
 1228 0202 5049     		ldr	r1, .L58+104
 1229 0204 3548     		ldr	r0, .L58
 1230              	.LBB422:
 1231              	.LBB419:
 1232              	.LBB407:
 1233              	.LBB404:
  45:../../DaisySP//Source/Utility/delayline.h ****     }
 1234              		.loc 11 45 20 view .LVU269
 1235 0206 C2E90164 		strd	r6, r4, [r2, #4]
 1236              	.LBE404:
 1237              	.LBE407:
 1238              	.LBE419:
 1239              	.LBE422:
  80:delay-module.cpp ****     cross_fader.SetCurve(CROSSFADE_LIN);
 1240              		.loc 12 80 5 is_stmt 1 view .LVU270
 1241              	.LVL71:
 1242              	.LBB423:
 1243              	.LBB420:
 1244              	.LBI410:
  59:../../DaisySP//Source/Dynamics/crossfade.h ****     /** processes CrossFade and returns single sample
 1245              		.loc 1 59 17 view .LVU271
 1246              	.LBE420:
 1247              	.LBE423:
  59:../../DaisySP//Source/Dynamics/crossfade.h ****     /** processes CrossFade and returns single sample
 1248              		.loc 1 59 26 view .LVU272
 1249              	.LBB424:
 1250              	.LBB421:
 1251              	.LBB416:
 1252              	.LBI411:
  51:../../DaisySP//Source/Dynamics/crossfade.h ****     {
 1253              		.loc 1 51 17 view .LVU273
 1254              	.LBB414:
  53:../../DaisySP//Source/Dynamics/crossfade.h ****         curve_ = curve < CROSSFADE_LAST ? curve : CROSSFADE_LIN;
 1255              		.loc 1 53 9 view .LVU274
  54:../../DaisySP//Source/Dynamics/crossfade.h ****     }
 1256              		.loc 1 54 9 view .LVU275
  54:../../DaisySP//Source/Dynamics/crossfade.h ****     }
 1257              		.loc 1 54 9 is_stmt 0 view .LVU276
 1258              	.LBE414:
 1259              	.LBE416:
 1260              	.LBE421:
 1261              	.LBE424:
  81:delay-module.cpp **** }
 1262              		.loc 12 81 5 is_stmt 1 view .LVU277
  69:../../DaisySP//Source/Dynamics/crossfade.h ****     /** Sets current curve applied to CrossFade 
  70:../../DaisySP//Source/Dynamics/crossfade.h ****     Expected input: See [Curve Options](##curve-options)
  71:../../DaisySP//Source/Dynamics/crossfade.h ****     */
  72:../../DaisySP//Source/Dynamics/crossfade.h ****     inline void SetCurve(uint8_t curve) { curve_ = curve; }
 1263              		.loc 1 72 43 view .LVU278
 1264              		.loc 12 229 5 view .LVU279
 1265 020a 424C     		ldr	r4, .L58+56
 1266              		.loc 12 229 18 is_stmt 0 view .LVU280
 1267 020c FFF7FEFF 		bl	_ZN5daisy9DaisySeed10StartAudioEPFvPKfPfjE
 1268              	.LVL72:
 1269 0210 4D4E     		ldr	r6, .L58+108
 1270              	.L37:
ARM GAS  C:\Users\kgpol\AppData\Local\Temp\cc4o6iZe.s 			page 41


 230:delay-module.cpp **** 
 231:delay-module.cpp ****     while(1) {
 1271              		.loc 12 231 5 is_stmt 1 discriminator 1 view .LVU281
 232:delay-module.cpp ****         ProcessSwitches();
 1272              		.loc 12 232 9 discriminator 1 view .LVU282
 1273              	.LBB425:
 1274              	.LBI425:
 101:delay-module.cpp **** {
 1275              		.loc 12 101 13 discriminator 1 view .LVU283
 1276              	.LBB426:
 103:delay-module.cpp ****     switch_2.Debounce();
 1277              		.loc 12 103 5 discriminator 1 view .LVU284
 103:delay-module.cpp ****     switch_2.Debounce();
 1278              		.loc 12 103 22 is_stmt 0 discriminator 1 view .LVU285
 1279 0212 4048     		ldr	r0, .L58+56
 1280 0214 FFF7FEFF 		bl	_ZN5daisy6Switch8DebounceEv
 1281              	.LVL73:
 104:delay-module.cpp **** 
 1282              		.loc 12 104 5 is_stmt 1 discriminator 1 view .LVU286
 104:delay-module.cpp **** 
 1283              		.loc 12 104 22 is_stmt 0 discriminator 1 view .LVU287
 1284 0218 3F48     		ldr	r0, .L58+60
 1285 021a FFF7FEFF 		bl	_ZN5daisy6Switch8DebounceEv
 1286              	.LVL74:
 106:delay-module.cpp ****         clock_sync = !clock_sync;
 1287              		.loc 12 106 5 is_stmt 1 discriminator 1 view .LVU288
 1288              	.LBB427:
 1289              	.LBI427:
  43:../../libDaisy//src/hid/switch.h **** 
  44:../../libDaisy//src/hid/switch.h ****     /** 
  45:../../libDaisy//src/hid/switch.h ****     Initializes the switch object with a given port/pin combo.
  46:../../libDaisy//src/hid/switch.h ****     \param pin port/pin object to tell the switch which hardware pin to use.
  47:../../libDaisy//src/hid/switch.h ****     \param update_rate Does nothing. Backwards compatibility until next breaking update.
  48:../../libDaisy//src/hid/switch.h ****     \param t switch type -- Default: TYPE_MOMENTARY
  49:../../libDaisy//src/hid/switch.h ****     \param pol switch polarity -- Default: POLARITY_INVERTED
  50:../../libDaisy//src/hid/switch.h ****     \param pu switch pull up/down -- Default: PULL_UP
  51:../../libDaisy//src/hid/switch.h ****     */
  52:../../libDaisy//src/hid/switch.h ****     void
  53:../../libDaisy//src/hid/switch.h ****     Init(dsy_gpio_pin pin, float update_rate, Type t, Polarity pol, Pull pu);
  54:../../libDaisy//src/hid/switch.h **** 
  55:../../libDaisy//src/hid/switch.h ****     /**
  56:../../libDaisy//src/hid/switch.h ****        Simplified Init.
  57:../../libDaisy//src/hid/switch.h ****        \param pin port/pin object to tell the switch which hardware pin to use.
  58:../../libDaisy//src/hid/switch.h ****        \param update_rate Left for backwards compatibility until next breaking change.
  59:../../libDaisy//src/hid/switch.h ****     */
  60:../../libDaisy//src/hid/switch.h ****     void Init(dsy_gpio_pin pin, float update_rate = 0.f);
  61:../../libDaisy//src/hid/switch.h **** 
  62:../../libDaisy//src/hid/switch.h ****     /** 
  63:../../libDaisy//src/hid/switch.h ****     Called at update_rate to debounce and handle timing for the switch.
  64:../../libDaisy//src/hid/switch.h ****     In order for events not to be missed, its important that the Edge/Pressed checks
  65:../../libDaisy//src/hid/switch.h ****     be made at the same rate as the debounce function is being called.
  66:../../libDaisy//src/hid/switch.h ****     */
  67:../../libDaisy//src/hid/switch.h ****     void Debounce();
  68:../../libDaisy//src/hid/switch.h **** 
  69:../../libDaisy//src/hid/switch.h ****     /** \return true if a button was just pressed. */
  70:../../libDaisy//src/hid/switch.h ****     inline bool RisingEdge() const { return updated_ ? state_ == 0x7f : false; }
 1290              		.loc 2 70 17 discriminator 1 view .LVU289
ARM GAS  C:\Users\kgpol\AppData\Local\Temp\cc4o6iZe.s 			page 42


 1291              	.LBB428:
 1292              		.loc 2 70 38 discriminator 1 view .LVU290
 1293              		.loc 2 70 54 is_stmt 0 discriminator 1 view .LVU291
 1294 021e 2379     		ldrb	r3, [r4, #4]	@ zero_extendqisi2
 1295 0220 002B     		cmp	r3, #0
 1296 0222 00F09F80 		beq	.L20
 1297              	.LVL75:
 1298              		.loc 2 70 54 discriminator 1 view .LVU292
 1299              	.LBE428:
 1300              	.LBE427:
 106:delay-module.cpp ****         clock_sync = !clock_sync;
 1301              		.loc 12 106 5 view .LVU293
 1302 0226 A37A     		ldrb	r3, [r4, #10]	@ zero_extendqisi2
 1303 0228 7F2B     		cmp	r3, #127
 1304 022a 40F09B80 		bne	.L20
 107:delay-module.cpp ****         if (!clock_sync) {
 1305              		.loc 12 107 9 is_stmt 1 view .LVU294
 107:delay-module.cpp ****         if (!clock_sync) {
 1306              		.loc 12 107 22 is_stmt 0 view .LVU295
 1307 022e 3B78     		ldrb	r3, [r7]	@ zero_extendqisi2
 1308 0230 83F00103 		eor	r3, r3, #1
 107:delay-module.cpp ****         if (!clock_sync) {
 1309              		.loc 12 107 20 view .LVU296
 1310 0234 3B70     		strb	r3, [r7]
 108:delay-module.cpp ****             led_1_b.Set(0.0f);
 1311              		.loc 12 108 9 is_stmt 1 view .LVU297
 1312 0236 002B     		cmp	r3, #0
 1313 0238 00F08A80 		beq	.L54
 114:delay-module.cpp ****         time_range++;
 1314              		.loc 12 114 5 view .LVU298
 1315              	.LVL76:
 1316              	.LBB429:
 1317              	.LBI429:
 1318              		.loc 2 70 17 view .LVU299
 1319              	.LBB430:
 1320              		.loc 2 70 38 view .LVU300
 1321              		.loc 2 70 45 is_stmt 0 view .LVU301
 1322 023c 2B79     		ldrb	r3, [r5, #4]	@ zero_extendqisi2
 1323              		.loc 2 70 54 view .LVU302
 1324 023e 4BB1     		cbz	r3, .L28
 1325              	.LVL77:
 1326              		.loc 2 70 54 view .LVU303
 1327              	.LBE430:
 1328              	.LBE429:
 114:delay-module.cpp ****         time_range++;
 1329              		.loc 12 114 5 view .LVU304
 1330 0240 AA7A     		ldrb	r2, [r5, #10]	@ zero_extendqisi2
 1331 0242 7F2A     		cmp	r2, #127
 1332 0244 06D1     		bne	.L28
 115:delay-module.cpp ****         if (time_range >= 4) {
 1333              		.loc 12 115 9 is_stmt 1 view .LVU305
 115:delay-module.cpp ****         if (time_range >= 4) {
 1334              		.loc 12 115 19 is_stmt 0 view .LVU306
 1335 0246 3268     		ldr	r2, [r6]
 1336 0248 0132     		adds	r2, r2, #1
 116:delay-module.cpp ****             time_range = 0;
 1337              		.loc 12 116 9 is_stmt 1 view .LVU307
ARM GAS  C:\Users\kgpol\AppData\Local\Temp\cc4o6iZe.s 			page 43


 1338 024a 032A     		cmp	r2, #3
 1339 024c 40F3B680 		ble	.L40
 117:delay-module.cpp ****         }
 1340              		.loc 12 117 13 view .LVU308
 117:delay-module.cpp ****         }
 1341              		.loc 12 117 24 is_stmt 0 view .LVU309
 1342 0250 0023     		movs	r3, #0
 1343 0252 3360     		str	r3, [r6]
 1344              	.LBE426:
 1345              	.LBE425:
 233:delay-module.cpp ****         SetLeds();
 1346              		.loc 12 233 9 is_stmt 1 view .LVU310
 1347              	.LBB436:
 1348              	.LBI436:
 122:delay-module.cpp **** {
 1349              		.loc 12 122 13 view .LVU311
 1350              	.LBB437:
 124:delay-module.cpp ****         if (clock.State()) {
 1351              		.loc 12 124 5 view .LVU312
 1352              	.L28:
 125:delay-module.cpp ****             led_1_b.Set(1.0f);
 1353              		.loc 12 125 9 view .LVU313
 1354              	.LVL78:
 1355              	.LBB438:
 1356              	.LBI438:
  22:../../libDaisy//src/hid/gatein.h **** 
  23:../../libDaisy//src/hid/gatein.h ****     /** @brief Initializes the gate input with specified hardware pin
  24:../../libDaisy//src/hid/gatein.h ****      *
  25:../../libDaisy//src/hid/gatein.h ****      *  @param pin_cfg pointer to pin to initialize
  26:../../libDaisy//src/hid/gatein.h ****      *  @param invert True if the pin state is HIGH when 0V is present
  27:../../libDaisy//src/hid/gatein.h ****      *         at the input. False if input signal matches the pin state.
  28:../../libDaisy//src/hid/gatein.h ****      *
  29:../../libDaisy//src/hid/gatein.h ****      *  @note the default for invert is true because it is typical to use
  30:../../libDaisy//src/hid/gatein.h ****      *  an inverting input circuit (e.g. a BJT circuit) for eurorack gate inputs.
  31:../../libDaisy//src/hid/gatein.h ****      */
  32:../../libDaisy//src/hid/gatein.h ****     void Init(Pin pin, bool invert = true);
  33:../../libDaisy//src/hid/gatein.h **** 
  34:../../libDaisy//src/hid/gatein.h ****     /** @brief Initializes the gate input with specified hardware pin
  35:../../libDaisy//src/hid/gatein.h ****      *
  36:../../libDaisy//src/hid/gatein.h ****      *  @param pin_cfg pointer to pin to initialize
  37:../../libDaisy//src/hid/gatein.h ****      *  @param invert True if the pin state is HIGH when 0V is present
  38:../../libDaisy//src/hid/gatein.h ****      *         at the input. False if input signal matches the pin state.
  39:../../libDaisy//src/hid/gatein.h ****      *
  40:../../libDaisy//src/hid/gatein.h ****      *  @note the default for invert is true because it is typical to use
  41:../../libDaisy//src/hid/gatein.h ****      *  an inverting input circuit (e.g. a BJT circuit) for eurorack gate inputs.
  42:../../libDaisy//src/hid/gatein.h ****      * 
  43:../../libDaisy//src/hid/gatein.h ****      *  @note deprectated - this function still works, but will eventually be removed.
  44:../../libDaisy//src/hid/gatein.h ****      *  It uses the old style dsy_gpio_pin in a way that it is not compatible with the
  45:../../libDaisy//src/hid/gatein.h ****      *  the new Pin class. 
  46:../../libDaisy//src/hid/gatein.h ****      */
  47:../../libDaisy//src/hid/gatein.h ****     void Init(dsy_gpio_pin *pin_cfg, bool invert = true);
  48:../../libDaisy//src/hid/gatein.h **** 
  49:../../libDaisy//src/hid/gatein.h ****     /** Checks current state of gate input.
  50:../../libDaisy//src/hid/gatein.h ****      *  @return True if the GPIO just transitioned.
  51:../../libDaisy//src/hid/gatein.h ****      */
  52:../../libDaisy//src/hid/gatein.h ****     bool Trig();
  53:../../libDaisy//src/hid/gatein.h **** 
ARM GAS  C:\Users\kgpol\AppData\Local\Temp\cc4o6iZe.s 			page 44


  54:../../libDaisy//src/hid/gatein.h ****     /** Checks current state of gate input (no state required)
  55:../../libDaisy//src/hid/gatein.h ****      *  read function is inverted because of suggested BJT input circuit
  56:../../libDaisy//src/hid/gatein.h ****      */
  57:../../libDaisy//src/hid/gatein.h ****     inline bool State() { return invert_ ? !pin_.Read() : pin_.Read(); }
 1357              		.loc 4 57 17 view .LVU314
 1358              	.LBB439:
 1359              		.loc 4 57 27 view .LVU315
 1360              		.loc 4 57 42 is_stmt 0 view .LVU316
 1361 0254 98F81630 		ldrb	r3, [r8, #22]	@ zero_extendqisi2
 1362 0258 002B     		cmp	r3, #0
 1363 025a 00F09E80 		beq	.L55
 1364              	.L26:
 1365              	.LVL79:
 1366              	.LBB440:
 1367              	.LBI440:
 1368              		.loc 4 57 17 is_stmt 1 view .LVU317
 1369              	.LBB441:
 1370              		.loc 4 57 54 is_stmt 0 view .LVU318
 1371 025e 2948     		ldr	r0, .L58+40
 1372 0260 FFF7FEFF 		bl	_ZN5daisy4GPIO4ReadEv
 1373              	.LVL80:
 1374              		.loc 4 57 42 view .LVU319
 1375 0264 80F00100 		eor	r0, r0, #1
 1376 0268 C0B2     		uxtb	r0, r0
 1377              	.LVL81:
 1378              		.loc 4 57 42 view .LVU320
 1379              	.LBE441:
 1380              	.LBE440:
 1381              	.LBE439:
 1382              	.LBE438:
 125:delay-module.cpp ****             led_1_b.Set(1.0f);
 1383              		.loc 12 125 9 view .LVU321
 1384 026a 0028     		cmp	r0, #0
 1385 026c 00F09B80 		beq	.L31
 1386              	.L56:
 126:delay-module.cpp ****             led_1_r.Set(1.0f);
 1387              		.loc 12 126 13 is_stmt 1 view .LVU322
 126:delay-module.cpp ****             led_1_r.Set(1.0f);
 1388              		.loc 12 126 24 is_stmt 0 view .LVU323
 1389 0270 B7EE000A 		vmov.f32	s0, #1.0e+0
 1390 0274 2948     		ldr	r0, .L58+64
 1391 0276 FFF7FEFF 		bl	_ZN5daisy3Led3SetEf
 1392              	.LVL82:
 127:delay-module.cpp ****         } else {
 1393              		.loc 12 127 13 is_stmt 1 view .LVU324
 127:delay-module.cpp ****         } else {
 1394              		.loc 12 127 24 is_stmt 0 view .LVU325
 1395 027a B7EE000A 		vmov.f32	s0, #1.0e+0
 1396 027e 2848     		ldr	r0, .L58+68
 1397 0280 FFF7FEFF 		bl	_ZN5daisy3Led3SetEf
 1398              	.LVL83:
 1399              	.L29:
 134:delay-module.cpp ****         case 0:
 1400              		.loc 12 134 5 is_stmt 1 view .LVU326
 1401 0284 3368     		ldr	r3, [r6]
 1402 0286 032B     		cmp	r3, #3
 1403 0288 0DD8     		bhi	.L32
ARM GAS  C:\Users\kgpol\AppData\Local\Temp\cc4o6iZe.s 			page 45


 1404 028a DFE803F0 		tbb	[pc, r3]
 1405              	.L34:
 1406 028e 7A       		.byte	(.L25-.L34)/2
 1407 028f 1C       		.byte	(.L36-.L34)/2
 1408 0290 19       		.byte	(.L35-.L34)/2
 1409 0291 02       		.byte	(.L33-.L34)/2
 1410              		.p2align 1
 1411              	.L33:
 147:delay-module.cpp ****             led_2_b.Set(0.0f);
 1412              		.loc 12 147 9 view .LVU327
 148:delay-module.cpp ****             led_2_r.Set(0.5f);
 1413              		.loc 12 148 13 view .LVU328
 148:delay-module.cpp ****             led_2_r.Set(0.5f);
 1414              		.loc 12 148 24 is_stmt 0 view .LVU329
 1415 0292 9FED2E0A 		vldr.32	s0, .L58+112
 1416              	.L53:
 1417 0296 2348     		ldr	r0, .L58+72
 1418 0298 FFF7FEFF 		bl	_ZN5daisy3Led3SetEf
 1419              	.LVL84:
 149:delay-module.cpp ****             break;
 1420              		.loc 12 149 13 is_stmt 1 view .LVU330
 149:delay-module.cpp ****             break;
 1421              		.loc 12 149 24 is_stmt 0 view .LVU331
 1422 029c B6EE000A 		vmov.f32	s0, #5.0e-1
 1423 02a0 2148     		ldr	r0, .L58+76
 1424 02a2 FFF7FEFF 		bl	_ZN5daisy3Led3SetEf
 1425              	.LVL85:
 150:delay-module.cpp ****     }
 1426              		.loc 12 150 13 is_stmt 1 view .LVU332
 1427              	.L32:
 1428              	.LBE437:
 1429              	.LBE436:
 234:delay-module.cpp ****         UpdateLeds();
 1430              		.loc 12 234 9 view .LVU333
 1431              	.LBB449:
 1432              	.LBI449:
 154:delay-module.cpp **** {
 1433              		.loc 12 154 13 view .LVU334
 1434              	.LBB450:
 156:delay-module.cpp ****     led_1_r.Update();
 1435              		.loc 12 156 5 view .LVU335
 156:delay-module.cpp ****     led_1_r.Update();
 1436              		.loc 12 156 19 is_stmt 0 view .LVU336
 1437 02a6 1D48     		ldr	r0, .L58+64
 1438 02a8 FFF7FEFF 		bl	_ZN5daisy3Led6UpdateEv
 1439              	.LVL86:
 157:delay-module.cpp ****     led_2_b.Update();
 1440              		.loc 12 157 5 is_stmt 1 view .LVU337
 157:delay-module.cpp ****     led_2_b.Update();
 1441              		.loc 12 157 19 is_stmt 0 view .LVU338
 1442 02ac 1C48     		ldr	r0, .L58+68
 1443 02ae FFF7FEFF 		bl	_ZN5daisy3Led6UpdateEv
 1444              	.LVL87:
 158:delay-module.cpp ****     led_2_r.Update();
 1445              		.loc 12 158 5 is_stmt 1 view .LVU339
 158:delay-module.cpp ****     led_2_r.Update();
 1446              		.loc 12 158 19 is_stmt 0 view .LVU340
ARM GAS  C:\Users\kgpol\AppData\Local\Temp\cc4o6iZe.s 			page 46


 1447 02b2 1C48     		ldr	r0, .L58+72
 1448 02b4 FFF7FEFF 		bl	_ZN5daisy3Led6UpdateEv
 1449              	.LVL88:
 159:delay-module.cpp **** }
 1450              		.loc 12 159 5 is_stmt 1 view .LVU341
 159:delay-module.cpp **** }
 1451              		.loc 12 159 19 is_stmt 0 view .LVU342
 1452 02b8 1B48     		ldr	r0, .L58+76
 1453 02ba FFF7FEFF 		bl	_ZN5daisy3Led6UpdateEv
 1454              	.LVL89:
 160:delay-module.cpp **** 
 1455              		.loc 12 160 1 view .LVU343
 1456 02be A8E7     		b	.L37
 1457              	.L35:
 1458              	.LBE450:
 1459              	.LBE449:
 1460              	.LBB451:
 1461              	.LBB444:
 143:delay-module.cpp ****             led_2_b.Set(0.5f);
 1462              		.loc 12 143 9 is_stmt 1 view .LVU344
 144:delay-module.cpp ****             led_2_r.Set(0.5f);
 1463              		.loc 12 144 13 view .LVU345
 144:delay-module.cpp ****             led_2_r.Set(0.5f);
 1464              		.loc 12 144 24 is_stmt 0 view .LVU346
 1465 02c0 B6EE000A 		vmov.f32	s0, #5.0e-1
 1466 02c4 E7E7     		b	.L53
 1467              	.L36:
 139:delay-module.cpp ****             led_2_b.Set(0.5f);
 1468              		.loc 12 139 9 is_stmt 1 view .LVU347
 140:delay-module.cpp ****             led_2_r.Set(0.0f);
 1469              		.loc 12 140 13 view .LVU348
 140:delay-module.cpp ****             led_2_r.Set(0.0f);
 1470              		.loc 12 140 24 is_stmt 0 view .LVU349
 1471 02c6 B6EE000A 		vmov.f32	s0, #5.0e-1
 1472              	.L52:
 1473 02ca 1648     		ldr	r0, .L58+72
 1474 02cc FFF7FEFF 		bl	_ZN5daisy3Led3SetEf
 1475              	.LVL90:
 141:delay-module.cpp ****             break;
 1476              		.loc 12 141 13 is_stmt 1 view .LVU350
 141:delay-module.cpp ****             break;
 1477              		.loc 12 141 24 is_stmt 0 view .LVU351
 1478 02d0 9FED1E0A 		vldr.32	s0, .L58+112
 1479 02d4 1448     		ldr	r0, .L58+76
 1480 02d6 FFF7FEFF 		bl	_ZN5daisy3Led3SetEf
 1481              	.LVL91:
 142:delay-module.cpp ****         case 2:
 1482              		.loc 12 142 13 is_stmt 1 view .LVU352
 1483 02da E4E7     		b	.L32
 1484              	.L59:
 1485              		.align	2
 1486              	.L58:
 1487 02dc 00000000 		.word	.LANCHOR5
 1488 02e0 18000000 		.word	.LANCHOR5+24
 1489 02e4 CDCCCC3D 		.word	1036831949
 1490 02e8 00000000 		.word	.LANCHOR0
 1491 02ec 00000000 		.word	.LANCHOR1
ARM GAS  C:\Users\kgpol\AppData\Local\Temp\cc4o6iZe.s 			page 47


 1492 02f0 00000000 		.word	.LANCHOR2
 1493 02f4 00000000 		.word	.LANCHOR3
 1494 02f8 20000000 		.word	.LANCHOR5+32
 1495 02fc 00000000 		.word	.LANCHOR16
 1496 0300 00000000 		.word	.LANCHOR6
 1497 0304 00000000 		.word	.LANCHOR7
 1498 0308 00000000 		.word	.LANCHOR8
 1499 030c 00000000 		.word	.LANCHOR9
 1500 0310 00007A44 		.word	1148846080
 1501 0314 00000000 		.word	.LANCHOR10
 1502 0318 00000000 		.word	.LANCHOR11
 1503 031c 00000000 		.word	.LANCHOR12
 1504 0320 00000000 		.word	.LANCHOR13
 1505 0324 00000000 		.word	.LANCHOR14
 1506 0328 00000000 		.word	.LANCHOR15
 1507 032c 00983A00 		.word	3840000
 1508 0330 18983A00 		.word	_ZL7delay_l+12
 1509 0334 0C983A00 		.word	_ZL7delay_l
 1510 0338 0C000000 		.word	_ZL7delay_r+12
 1511 033c 00000000 		.word	.LANCHOR4
 1512 0340 00000000 		.word	_ZL7delay_r
 1513 0344 00000000 		.word	_ZL13AudioCallbackPKfPfj
 1514 0348 00000000 		.word	.LANCHOR17
 1515 034c 00000000 		.word	0
 1516              	.L54:
 1517              	.LBE444:
 1518              	.LBE451:
 1519              	.LBB452:
 1520              	.LBB433:
 109:delay-module.cpp ****             led_1_r.Set(0.0f);
 1521              		.loc 12 109 13 view .LVU353
 109:delay-module.cpp ****             led_1_r.Set(0.0f);
 1522              		.loc 12 109 24 is_stmt 0 view .LVU354
 1523 0350 1FED020A 		vldr.32	s0, .L58+112
 1524 0354 1C48     		ldr	r0, .L60
 1525 0356 FFF7FEFF 		bl	_ZN5daisy3Led3SetEf
 1526              	.LVL92:
 110:delay-module.cpp ****         }
 1527              		.loc 12 110 13 is_stmt 1 view .LVU355
 110:delay-module.cpp ****         }
 1528              		.loc 12 110 24 is_stmt 0 view .LVU356
 1529 035a 9FED1C0A 		vldr.32	s0, .L60+4
 1530 035e 1C48     		ldr	r0, .L60+8
 1531 0360 FFF7FEFF 		bl	_ZN5daisy3Led3SetEf
 1532              	.LVL93:
 1533              	.L20:
 114:delay-module.cpp ****         time_range++;
 1534              		.loc 12 114 5 is_stmt 1 view .LVU357
 1535              	.LBB432:
 1536              		.loc 2 70 17 view .LVU358
 1537              	.LBB431:
 1538              		.loc 2 70 38 view .LVU359
 1539              		.loc 2 70 54 is_stmt 0 view .LVU360
 1540 0364 2B79     		ldrb	r3, [r5, #4]	@ zero_extendqisi2
 1541 0366 7BB1     		cbz	r3, .L22
 1542              	.LBE431:
 1543              	.LBE432:
ARM GAS  C:\Users\kgpol\AppData\Local\Temp\cc4o6iZe.s 			page 48


 114:delay-module.cpp ****         time_range++;
 1544              		.loc 12 114 5 view .LVU361
 1545 0368 AA7A     		ldrb	r2, [r5, #10]	@ zero_extendqisi2
 1546              	.LBE433:
 1547              	.LBE452:
 1548              	.LBB453:
 1549              	.LBB445:
 124:delay-module.cpp ****         if (clock.State()) {
 1550              		.loc 12 124 5 view .LVU362
 1551 036a 3B78     		ldrb	r3, [r7]	@ zero_extendqisi2
 1552              	.LVL94:
 124:delay-module.cpp ****         if (clock.State()) {
 1553              		.loc 12 124 5 view .LVU363
 1554              	.LBE445:
 1555              	.LBE453:
 1556              	.LBB454:
 1557              	.LBB434:
 114:delay-module.cpp ****         time_range++;
 1558              		.loc 12 114 5 view .LVU364
 1559 036c 7F2A     		cmp	r2, #127
 1560 036e 0CD1     		bne	.L23
 115:delay-module.cpp ****         if (time_range >= 4) {
 1561              		.loc 12 115 9 is_stmt 1 view .LVU365
 115:delay-module.cpp ****         if (time_range >= 4) {
 1562              		.loc 12 115 19 is_stmt 0 view .LVU366
 1563 0370 3268     		ldr	r2, [r6]
 1564 0372 0132     		adds	r2, r2, #1
 116:delay-module.cpp ****             time_range = 0;
 1565              		.loc 12 116 9 is_stmt 1 view .LVU367
 1566 0374 032A     		cmp	r2, #3
 1567 0376 21DD     		ble	.L40
 117:delay-module.cpp ****         }
 1568              		.loc 12 117 13 view .LVU368
 117:delay-module.cpp ****         }
 1569              		.loc 12 117 24 is_stmt 0 view .LVU369
 1570 0378 0022     		movs	r2, #0
 1571 037a 3260     		str	r2, [r6]
 1572              	.LBE434:
 1573              	.LBE454:
 233:delay-module.cpp ****         UpdateLeds();
 1574              		.loc 12 233 9 is_stmt 1 view .LVU370
 1575              	.LBB455:
 122:delay-module.cpp **** {
 1576              		.loc 12 122 13 view .LVU371
 1577              	.LBB446:
 124:delay-module.cpp ****         if (clock.State()) {
 1578              		.loc 12 124 5 view .LVU372
 1579 037c 002B     		cmp	r3, #0
 1580 037e 7FF469AF 		bne	.L28
 1581              	.L25:
 135:delay-module.cpp ****             led_2_b.Set(0.0f);
 1582              		.loc 12 135 9 view .LVU373
 136:delay-module.cpp ****             led_2_r.Set(0.0f);
 1583              		.loc 12 136 13 view .LVU374
 136:delay-module.cpp ****             led_2_r.Set(0.0f);
 1584              		.loc 12 136 24 is_stmt 0 view .LVU375
 1585 0382 9FED120A 		vldr.32	s0, .L60+4
ARM GAS  C:\Users\kgpol\AppData\Local\Temp\cc4o6iZe.s 			page 49


 1586 0386 A0E7     		b	.L52
 1587              	.LVL95:
 1588              	.L22:
 124:delay-module.cpp ****         if (clock.State()) {
 1589              		.loc 12 124 5 view .LVU376
 1590 0388 3B78     		ldrb	r3, [r7]	@ zero_extendqisi2
 1591              	.LVL96:
 1592              	.L23:
 124:delay-module.cpp ****         if (clock.State()) {
 1593              		.loc 12 124 5 view .LVU377
 1594              	.LBE446:
 1595              	.LBE455:
 233:delay-module.cpp ****         UpdateLeds();
 1596              		.loc 12 233 9 is_stmt 1 view .LVU378
 1597              	.LBB456:
 122:delay-module.cpp **** {
 1598              		.loc 12 122 13 view .LVU379
 1599              	.LBB447:
 124:delay-module.cpp ****         if (clock.State()) {
 1600              		.loc 12 124 5 view .LVU380
 1601 038a 002B     		cmp	r3, #0
 1602 038c 3FF47AAF 		beq	.L29
 1603              	.L57:
 125:delay-module.cpp ****             led_1_b.Set(1.0f);
 1604              		.loc 12 125 9 view .LVU381
 1605              	.LVL97:
 1606              	.LBB443:
 1607              		.loc 4 57 17 view .LVU382
 1608              	.LBB442:
 1609              		.loc 4 57 27 view .LVU383
 1610              		.loc 4 57 42 is_stmt 0 view .LVU384
 1611 0390 98F81630 		ldrb	r3, [r8, #22]	@ zero_extendqisi2
 1612 0394 002B     		cmp	r3, #0
 1613 0396 7FF462AF 		bne	.L26
 1614              	.L55:
 1615              		.loc 4 57 68 view .LVU385
 1616 039a 0E48     		ldr	r0, .L60+12
 1617 039c FFF7FEFF 		bl	_ZN5daisy4GPIO4ReadEv
 1618              	.LVL98:
 1619              		.loc 4 57 68 view .LVU386
 1620              	.LBE442:
 1621              	.LBE443:
 125:delay-module.cpp ****             led_1_b.Set(1.0f);
 1622              		.loc 12 125 9 view .LVU387
 1623 03a0 0028     		cmp	r0, #0
 1624 03a2 7FF465AF 		bne	.L56
 1625              	.L31:
 129:delay-module.cpp ****             led_1_r.Set(0.4f);
 1626              		.loc 12 129 13 is_stmt 1 view .LVU388
 129:delay-module.cpp ****             led_1_r.Set(0.4f);
 1627              		.loc 12 129 24 is_stmt 0 view .LVU389
 1628 03a6 9FED0C0A 		vldr.32	s0, .L60+16
 1629 03aa 0748     		ldr	r0, .L60
 1630 03ac FFF7FEFF 		bl	_ZN5daisy3Led3SetEf
 1631              	.LVL99:
 130:delay-module.cpp ****         }
 1632              		.loc 12 130 13 is_stmt 1 view .LVU390
ARM GAS  C:\Users\kgpol\AppData\Local\Temp\cc4o6iZe.s 			page 50


 130:delay-module.cpp ****         }
 1633              		.loc 12 130 24 is_stmt 0 view .LVU391
 1634 03b0 9FED090A 		vldr.32	s0, .L60+16
 1635 03b4 0648     		ldr	r0, .L60+8
 1636 03b6 FFF7FEFF 		bl	_ZN5daisy3Led3SetEf
 1637              	.LVL100:
 1638 03ba 63E7     		b	.L29
 1639              	.L40:
 1640              	.LBE447:
 1641              	.LBE456:
 1642              	.LBB457:
 1643              	.LBB435:
 115:delay-module.cpp ****         if (time_range >= 4) {
 1644              		.loc 12 115 19 view .LVU392
 1645 03bc 3260     		str	r2, [r6]
 1646              	.LBE435:
 1647              	.LBE457:
 233:delay-module.cpp ****         UpdateLeds();
 1648              		.loc 12 233 9 is_stmt 1 view .LVU393
 1649              	.LBB458:
 122:delay-module.cpp **** {
 1650              		.loc 12 122 13 view .LVU394
 1651              	.LBB448:
 124:delay-module.cpp ****         if (clock.State()) {
 1652              		.loc 12 124 5 view .LVU395
 1653 03be 002B     		cmp	r3, #0
 1654 03c0 3FF460AF 		beq	.L29
 1655 03c4 E4E7     		b	.L57
 1656              	.L61:
 1657 03c6 00BF     		.align	2
 1658              	.L60:
 1659 03c8 00000000 		.word	.LANCHOR12
 1660 03cc 00000000 		.word	0
 1661 03d0 00000000 		.word	.LANCHOR13
 1662 03d4 00000000 		.word	.LANCHOR7
 1663 03d8 CDCCCC3E 		.word	1053609165
 1664              	.LBE448:
 1665              	.LBE458:
 1666              		.cfi_endproc
 1667              	.LFE4689:
 1669              		.section	.text.startup._GLOBAL__sub_I_clock_sync,"ax",%progbits
 1670              		.align	1
 1671              		.p2align 2,,3
 1672              		.syntax unified
 1673              		.thumb
 1674              		.thumb_func
 1675              		.fpu fpv5-d16
 1677              	_GLOBAL__sub_I_clock_sync:
 1678              	.LFB5263:
 235:delay-module.cpp **** 	}
 236:delay-module.cpp **** }
 1679              		.loc 12 236 1 view -0
 1680              		.cfi_startproc
 1681              		@ args = 0, pretend = 0, frame = 0
 1682              		@ frame_needed = 0, uses_anonymous_args = 0
 1683              	.LBB526:
 1684              	.LBI526:
ARM GAS  C:\Users\kgpol\AppData\Local\Temp\cc4o6iZe.s 			page 51


 1685              		.loc 12 236 1 view .LVU397
 1686              	.LVL101:
 1687              	.LBB527:
 1688              	.LBB528:
 1689              	.LBI528:
  21:../../libDaisy//src/daisy_seed.h ****     ~DaisySeed() {}
 1690              		.loc 6 21 5 view .LVU398
 1691              	.LBB529:
 1692              	.LBB530:
 1693              	.LBI530:
 1694              		.file 13 "../../libDaisy//src/per/qspi.h"
   1:../../libDaisy//src/per/qspi.h **** #ifndef DSY_QSPI
   2:../../libDaisy//src/per/qspi.h **** #define DSY_QSPI /**< Macro */
   3:../../libDaisy//src/per/qspi.h **** 
   4:../../libDaisy//src/per/qspi.h **** #ifndef UNIT_TEST // for unit tests, a dummy implementation
   5:../../libDaisy//src/per/qspi.h **** 
   6:../../libDaisy//src/per/qspi.h **** #include <cstdint>
   7:../../libDaisy//src/per/qspi.h **** #include "daisy_core.h" // Added for dsy_gpio_pin typedef
   8:../../libDaisy//src/per/qspi.h **** 
   9:../../libDaisy//src/per/qspi.h **** #define DSY_QSPI_TEXT       \
  10:../../libDaisy//src/per/qspi.h ****     __attribute__((section( \
  11:../../libDaisy//src/per/qspi.h ****         ".qspiflash_text"))) /**< used for reading memory in memory_mapped mode. */
  12:../../libDaisy//src/per/qspi.h **** #define DSY_QSPI_DATA       \
  13:../../libDaisy//src/per/qspi.h ****     __attribute__((section( \
  14:../../libDaisy//src/per/qspi.h ****         ".qspiflash_data"))) /**< used for reading memory in memory_mapped mode. */
  15:../../libDaisy//src/per/qspi.h **** #define DSY_QSPI_BSS        \
  16:../../libDaisy//src/per/qspi.h ****     __attribute__((section( \
  17:../../libDaisy//src/per/qspi.h ****         ".qspiflash_bss"))) /**< used for reading memory in memory_mapped mode. */
  18:../../libDaisy//src/per/qspi.h **** 
  19:../../libDaisy//src/per/qspi.h **** namespace daisy
  20:../../libDaisy//src/per/qspi.h **** {
  21:../../libDaisy//src/per/qspi.h **** /** @addtogroup serial
  22:../../libDaisy//src/per/qspi.h **** @{
  23:../../libDaisy//src/per/qspi.h **** */
  24:../../libDaisy//src/per/qspi.h **** 
  25:../../libDaisy//src/per/qspi.h **** /** 
  26:../../libDaisy//src/per/qspi.h ****  Driver for QSPI peripheral to interface with external flash memory. \n 
  27:../../libDaisy//src/per/qspi.h ****     Currently supported QSPI Devices: \n 
  28:../../libDaisy//src/per/qspi.h ****     * IS25LP080D
  29:../../libDaisy//src/per/qspi.h **** */
  30:../../libDaisy//src/per/qspi.h **** class QSPIHandle
  31:../../libDaisy//src/per/qspi.h **** {
  32:../../libDaisy//src/per/qspi.h ****   public:
  33:../../libDaisy//src/per/qspi.h ****     enum Result
  34:../../libDaisy//src/per/qspi.h ****     {
  35:../../libDaisy//src/per/qspi.h ****         OK = 0,
  36:../../libDaisy//src/per/qspi.h ****         ERR
  37:../../libDaisy//src/per/qspi.h ****     };
  38:../../libDaisy//src/per/qspi.h **** 
  39:../../libDaisy//src/per/qspi.h ****     /** Indicates the current status of the module. 
  40:../../libDaisy//src/per/qspi.h ****          *  Warnings are indicated by a leading W.
  41:../../libDaisy//src/per/qspi.h ****          *  Errors are indicated by a leading E and cause an immediate exit.
  42:../../libDaisy//src/per/qspi.h ****          * 
  43:../../libDaisy//src/per/qspi.h ****          *  \param GOOD - No errors have been reported.
  44:../../libDaisy//src/per/qspi.h ****          *  \param E_HAL_ERROR - HAL code did not return HAL_OK.
  45:../../libDaisy//src/per/qspi.h ****          *  \param E_SWITCHING_MODES - An error was encountered while switching QSPI peripheral mod
  46:../../libDaisy//src/per/qspi.h ****          *  \param E_INVALID_MODE - QSPI should not be written to while the program is executing fr
ARM GAS  C:\Users\kgpol\AppData\Local\Temp\cc4o6iZe.s 			page 52


  47:../../libDaisy//src/per/qspi.h ****          */
  48:../../libDaisy//src/per/qspi.h ****     enum Status
  49:../../libDaisy//src/per/qspi.h ****     {
  50:../../libDaisy//src/per/qspi.h ****         GOOD = 0,
  51:../../libDaisy//src/per/qspi.h ****         E_HAL_ERROR,
  52:../../libDaisy//src/per/qspi.h ****         E_SWITCHING_MODES,
  53:../../libDaisy//src/per/qspi.h ****         E_INVALID_MODE,
  54:../../libDaisy//src/per/qspi.h ****     };
  55:../../libDaisy//src/per/qspi.h **** 
  56:../../libDaisy//src/per/qspi.h ****     /** Configuration structure for interfacing with QSPI Driver */
  57:../../libDaisy//src/per/qspi.h ****     struct Config
  58:../../libDaisy//src/per/qspi.h ****     {
  59:../../libDaisy//src/per/qspi.h ****         /** Flash Devices supported. (Both of these are more-or-less the same, just different sizes
  60:../../libDaisy//src/per/qspi.h ****         enum Device
  61:../../libDaisy//src/per/qspi.h ****         {
  62:../../libDaisy//src/per/qspi.h ****             IS25LP080D,  /**< & */
  63:../../libDaisy//src/per/qspi.h ****             IS25LP064A,  /**< & */
  64:../../libDaisy//src/per/qspi.h ****             DEVICE_LAST, /**< & */
  65:../../libDaisy//src/per/qspi.h ****         };
  66:../../libDaisy//src/per/qspi.h **** 
  67:../../libDaisy//src/per/qspi.h ****         /** 
  68:../../libDaisy//src/per/qspi.h ****         Modes of operation.
  69:../../libDaisy//src/per/qspi.h ****         Memory Mapped mode: QSPI configured so that the QSPI can be
  70:../../libDaisy//src/per/qspi.h ****         read from starting address 0x90000000. Writing is not
  71:../../libDaisy//src/per/qspi.h ****         possible in this mode. \n 
  72:../../libDaisy//src/per/qspi.h ****         Indirect Polling mode: Device driver enabled. 
  73:../../libDaisy//src/per/qspi.h ****         */
  74:../../libDaisy//src/per/qspi.h ****         enum Mode
  75:../../libDaisy//src/per/qspi.h ****         {
  76:../../libDaisy//src/per/qspi.h ****             MEMORY_MAPPED,    /**< & */
  77:../../libDaisy//src/per/qspi.h ****             INDIRECT_POLLING, /**< & */
  78:../../libDaisy//src/per/qspi.h ****             MODE_LAST,
  79:../../libDaisy//src/per/qspi.h ****         };
  80:../../libDaisy//src/per/qspi.h **** 
  81:../../libDaisy//src/per/qspi.h ****         //SCK,  CE# (active low)
  82:../../libDaisy//src/per/qspi.h ****         struct
  83:../../libDaisy//src/per/qspi.h ****         {
  84:../../libDaisy//src/per/qspi.h ****             dsy_gpio_pin io0; /**< & */
  85:../../libDaisy//src/per/qspi.h ****             dsy_gpio_pin io1; /**< & */
  86:../../libDaisy//src/per/qspi.h ****             dsy_gpio_pin io2; /**< & */
  87:../../libDaisy//src/per/qspi.h ****             dsy_gpio_pin io3; /**< & */
  88:../../libDaisy//src/per/qspi.h ****             dsy_gpio_pin clk; /**< & */
  89:../../libDaisy//src/per/qspi.h ****             dsy_gpio_pin ncs; /**< & */
  90:../../libDaisy//src/per/qspi.h ****         } pin_config;
  91:../../libDaisy//src/per/qspi.h **** 
  92:../../libDaisy//src/per/qspi.h ****         Device device;
  93:../../libDaisy//src/per/qspi.h ****         Mode   mode;
  94:../../libDaisy//src/per/qspi.h ****     };
  95:../../libDaisy//src/per/qspi.h **** 
  96:../../libDaisy//src/per/qspi.h ****     /** 
  97:../../libDaisy//src/per/qspi.h ****         Initializes QSPI peripheral, and Resets, and prepares memory for access.
  98:../../libDaisy//src/per/qspi.h ****         \param config should be populated with the mode, device and pin_config before calling this 
  99:../../libDaisy//src/per/qspi.h ****         \return Result::OK or Result::ERR
 100:../../libDaisy//src/per/qspi.h ****         */
 101:../../libDaisy//src/per/qspi.h ****     Result Init(const Config& config);
 102:../../libDaisy//src/per/qspi.h **** 
 103:../../libDaisy//src/per/qspi.h ****     /** Returns the current config. */
ARM GAS  C:\Users\kgpol\AppData\Local\Temp\cc4o6iZe.s 			page 53


 104:../../libDaisy//src/per/qspi.h ****     const Config& GetConfig() const;
 105:../../libDaisy//src/per/qspi.h **** 
 106:../../libDaisy//src/per/qspi.h ****     // Couldn't this just be called before anything else in init? That
 107:../../libDaisy//src/per/qspi.h ****     // would make manually calling it unnecessary.
 108:../../libDaisy//src/per/qspi.h ****     /** 
 109:../../libDaisy//src/per/qspi.h ****         Deinitializes the peripheral
 110:../../libDaisy//src/per/qspi.h ****         This should be called before reinitializing QSPI in a different mode.
 111:../../libDaisy//src/per/qspi.h ****         \return Result::OK or Result::ERR
 112:../../libDaisy//src/per/qspi.h ****         */
 113:../../libDaisy//src/per/qspi.h ****     Result DeInit();
 114:../../libDaisy//src/per/qspi.h **** 
 115:../../libDaisy//src/per/qspi.h ****     /** 
 116:../../libDaisy//src/per/qspi.h ****         Writes a single page to to the specified address on the QSPI chip.
 117:../../libDaisy//src/per/qspi.h ****         For IS25LP*, page size is 256 bytes.
 118:../../libDaisy//src/per/qspi.h ****         \param address Address to write to
 119:../../libDaisy//src/per/qspi.h ****         \param size Buffer size
 120:../../libDaisy//src/per/qspi.h ****         \param buffer Buffer to write
 121:../../libDaisy//src/per/qspi.h ****         \return Result::OK or Result::ERR
 122:../../libDaisy//src/per/qspi.h ****         */
 123:../../libDaisy//src/per/qspi.h ****     Result WritePage(uint32_t address, uint32_t size, uint8_t* buffer);
 124:../../libDaisy//src/per/qspi.h **** 
 125:../../libDaisy//src/per/qspi.h ****     /** 
 126:../../libDaisy//src/per/qspi.h ****         Writes data in buffer to to the QSPI. Starting at address to address+size 
 127:../../libDaisy//src/per/qspi.h ****         \param address Address to write to
 128:../../libDaisy//src/per/qspi.h ****         \param size Buffer size
 129:../../libDaisy//src/per/qspi.h ****         \param buffer Buffer to write
 130:../../libDaisy//src/per/qspi.h ****         \return Result::OK or Result::ERR
 131:../../libDaisy//src/per/qspi.h ****         */
 132:../../libDaisy//src/per/qspi.h ****     Result Write(uint32_t address, uint32_t size, uint8_t* buffer);
 133:../../libDaisy//src/per/qspi.h **** 
 134:../../libDaisy//src/per/qspi.h ****     /** 
 135:../../libDaisy//src/per/qspi.h ****         Erases the area specified on the chip.
 136:../../libDaisy//src/per/qspi.h ****         Erasures will happen by 4K, 32K or 64K increments.
 137:../../libDaisy//src/per/qspi.h ****         Smallest erase possible is 4kB at a time. (on IS25LP*)
 138:../../libDaisy//src/per/qspi.h ****         \param start_addr Address to begin erasing from
 139:../../libDaisy//src/per/qspi.h ****         \param end_addr  Address to stop erasing at
 140:../../libDaisy//src/per/qspi.h ****         \return Result::OK or Result::ERR
 141:../../libDaisy//src/per/qspi.h ****         */
 142:../../libDaisy//src/per/qspi.h ****     Result Erase(uint32_t start_addr, uint32_t end_addr);
 143:../../libDaisy//src/per/qspi.h **** 
 144:../../libDaisy//src/per/qspi.h ****     /**  
 145:../../libDaisy//src/per/qspi.h ****          Erases a single sector of the chip.  
 146:../../libDaisy//src/per/qspi.h ****         TODO: Document the size of this function. 
 147:../../libDaisy//src/per/qspi.h ****         \param address Address of sector to erase
 148:../../libDaisy//src/per/qspi.h ****         \return Result::OK or Result::ERR
 149:../../libDaisy//src/per/qspi.h ****         */
 150:../../libDaisy//src/per/qspi.h ****     Result EraseSector(uint32_t address);
 151:../../libDaisy//src/per/qspi.h **** 
 152:../../libDaisy//src/per/qspi.h ****     /** Returns the current class status. Useful for debugging.
 153:../../libDaisy//src/per/qspi.h ****      *  \returns Status
 154:../../libDaisy//src/per/qspi.h ****      */
 155:../../libDaisy//src/per/qspi.h ****     Status GetStatus();
 156:../../libDaisy//src/per/qspi.h **** 
 157:../../libDaisy//src/per/qspi.h ****     /** Returns a pointer to the actual memory used 
 158:../../libDaisy//src/per/qspi.h ****      *  The memory at this address is read-only
 159:../../libDaisy//src/per/qspi.h ****      *  to write to it use the Write function.
 160:../../libDaisy//src/per/qspi.h ****      * 
ARM GAS  C:\Users\kgpol\AppData\Local\Temp\cc4o6iZe.s 			page 54


 161:../../libDaisy//src/per/qspi.h ****      *  \param offset returns the pointer starting this 
 162:../../libDaisy//src/per/qspi.h ****      *                many bytes into the memory
 163:../../libDaisy//src/per/qspi.h ****     */
 164:../../libDaisy//src/per/qspi.h ****     void* GetData(uint32_t offset = 0);
 165:../../libDaisy//src/per/qspi.h **** 
 166:../../libDaisy//src/per/qspi.h ****     QSPIHandle() : pimpl_(nullptr) {}
 1695              		.loc 13 166 5 view .LVU399
 1696              	.LBE530:
 1697              	.LBE529:
 1698              	.LBE528:
 1699              	.LBE527:
 1700              	.LBE526:
 1701              		.loc 12 236 1 is_stmt 0 view .LVU400
 1702 0000 70B5     		push	{r4, r5, r6, lr}
 1703              		.cfi_def_cfa_offset 16
 1704              		.cfi_offset 4, -16
 1705              		.cfi_offset 5, -12
 1706              		.cfi_offset 6, -8
 1707              		.cfi_offset 14, -4
 1708              	.LBB600:
 1709              	.LBB598:
 1710              	.LBB551:
 1711              	.LBB549:
 1712              	.LBB535:
 1713              	.LBB531:
 1714              	.LBB532:
 1715              		.loc 13 166 34 view .LVU401
 1716 0002 3248     		ldr	r0, .L64
 1717 0004 0025     		movs	r5, #0
 1718              	.LBE532:
 1719              	.LBE531:
 1720              	.LBE535:
 1721              	.LBE549:
 1722              	.LBE551:
  24:delay-module.cpp **** static AnalogControl cv_0, cv_1, cv_2, cv_3;
 1723              		.loc 12 24 18 view .LVU402
 1724 0006 324C     		ldr	r4, .L64+4
 1725              	.LBB552:
 1726              	.LBB553:
  18:../../libDaisy//src/hid/gatein.h **** 
 1727              		.loc 4 18 14 view .LVU403
 1728 0008 4FF60B76 		movw	r6, #65291
 1729              	.LBE553:
 1730              	.LBE552:
  24:delay-module.cpp **** static AnalogControl cv_0, cv_1, cv_2, cv_3;
 1731              		.loc 12 24 18 view .LVU404
 1732 000c 3149     		ldr	r1, .L64+8
 1733 000e 2246     		mov	r2, r4
 1734              	.LBB567:
 1735              	.LBB550:
 1736              	.LBB536:
 1737              	.LBB534:
 1738              	.LBB533:
 1739              		.loc 13 166 34 view .LVU405
 1740 0010 0560     		str	r5, [r0]
 1741              	.LVL102:
 1742              		.loc 13 166 34 view .LVU406
ARM GAS  C:\Users\kgpol\AppData\Local\Temp\cc4o6iZe.s 			page 55


 1743              	.LBE533:
 1744              	.LBE534:
 1745              	.LBE536:
 1746              	.LBB537:
 1747              	.LBI537:
  95:../../libDaisy//src/hid/audio.h ****     ~AudioHandle() {}
 1748              		.loc 10 95 5 is_stmt 1 view .LVU407
 1749              	.LBB538:
 1750              	.LBB539:
  95:../../libDaisy//src/hid/audio.h ****     ~AudioHandle() {}
 1751              		.loc 10 95 35 is_stmt 0 view .LVU408
 1752 0012 4561     		str	r5, [r0, #20]
 1753              	.LVL103:
  95:../../libDaisy//src/hid/audio.h ****     ~AudioHandle() {}
 1754              		.loc 10 95 35 view .LVU409
 1755              	.LBE539:
 1756              	.LBE538:
 1757              	.LBE537:
 1758              	.LBB540:
 1759              	.LBI540:
 109:../../libDaisy//src/per/adc.h ****     ~AdcHandle() {}
 1760              		.loc 9 109 5 is_stmt 1 view .LVU410
 109:../../libDaisy//src/per/adc.h ****     ~AdcHandle() {}
 1761              		.loc 9 109 5 is_stmt 0 view .LVU411
 1762              	.LBE540:
 1763              	.LBB541:
 1764              	.LBI541:
 1765              		.file 14 "../../libDaisy//src/per/dac.h"
   1:../../libDaisy//src/per/dac.h **** #pragma once
   2:../../libDaisy//src/per/dac.h **** #ifndef DSY_DAC_H
   3:../../libDaisy//src/per/dac.h **** #define DSY_DAC_H
   4:../../libDaisy//src/per/dac.h **** 
   5:../../libDaisy//src/per/dac.h **** #include "daisy_core.h"
   6:../../libDaisy//src/per/dac.h **** 
   7:../../libDaisy//src/per/dac.h **** namespace daisy
   8:../../libDaisy//src/per/dac.h **** {
   9:../../libDaisy//src/per/dac.h **** /** @brief DAC handle for Built-in DAC Peripheral 
  10:../../libDaisy//src/per/dac.h ****  *  @ingroup per_analog
  11:../../libDaisy//src/per/dac.h ****  ** 
  12:../../libDaisy//src/per/dac.h ****  ** For now only Normal Mode is supported,
  13:../../libDaisy//src/per/dac.h ****  ** Sample and hold mode provides reduced power consumption, but requires a bit more setup.
  14:../../libDaisy//src/per/dac.h ****  **
  15:../../libDaisy//src/per/dac.h ****  ** For now connecting the DAC through other internal peripherals is also not supported.
  16:../../libDaisy//src/per/dac.h ****  **
  17:../../libDaisy//src/per/dac.h ****  ** Since the DAC channels have dedicated pins we don't need to pass in a pin config like with
  18:../../libDaisy//src/per/dac.h ****  ** other modules. However, it is still important to not try to use the DAC pins for anything else.
  19:../../libDaisy//src/per/dac.h ****  ** DAC Channel 1 is on PA4, and DAC Channel 2 is on PA5
  20:../../libDaisy//src/per/dac.h ****  ***/
  21:../../libDaisy//src/per/dac.h **** class DacHandle
  22:../../libDaisy//src/per/dac.h **** {
  23:../../libDaisy//src/per/dac.h ****   public:
  24:../../libDaisy//src/per/dac.h ****     /** Return Values for the DacHandle class */
  25:../../libDaisy//src/per/dac.h ****     enum class Result
  26:../../libDaisy//src/per/dac.h ****     {
  27:../../libDaisy//src/per/dac.h ****         OK,
  28:../../libDaisy//src/per/dac.h ****         ERR,
  29:../../libDaisy//src/per/dac.h ****     };
ARM GAS  C:\Users\kgpol\AppData\Local\Temp\cc4o6iZe.s 			page 56


  30:../../libDaisy//src/per/dac.h **** 
  31:../../libDaisy//src/per/dac.h ****     /** Selects which channel(s) will be configured for use. */
  32:../../libDaisy//src/per/dac.h ****     enum class Channel
  33:../../libDaisy//src/per/dac.h ****     {
  34:../../libDaisy//src/per/dac.h ****         ONE,
  35:../../libDaisy//src/per/dac.h ****         TWO,
  36:../../libDaisy//src/per/dac.h ****         BOTH,
  37:../../libDaisy//src/per/dac.h ****     };
  38:../../libDaisy//src/per/dac.h **** 
  39:../../libDaisy//src/per/dac.h ****     /** Sets the Mode for the DAC channels.
  40:../../libDaisy//src/per/dac.h ****      **
  41:../../libDaisy//src/per/dac.h ****      ** Polling mode uses the blocking mode to transmit a single value at a time.
  42:../../libDaisy//src/per/dac.h ****      **
  43:../../libDaisy//src/per/dac.h ****      ** DMA mode uses a buffer, and periodically transmits it triggering a 
  44:../../libDaisy//src/per/dac.h ****      ** callback to fill the buffer when it is ready for more samples.
  45:../../libDaisy//src/per/dac.h ****      ***/
  46:../../libDaisy//src/per/dac.h ****     enum class Mode
  47:../../libDaisy//src/per/dac.h ****     {
  48:../../libDaisy//src/per/dac.h ****         POLLING,
  49:../../libDaisy//src/per/dac.h ****         DMA,
  50:../../libDaisy//src/per/dac.h ****     };
  51:../../libDaisy//src/per/dac.h **** 
  52:../../libDaisy//src/per/dac.h ****     /** Sets the number of bits per sample transmitted out of the DAC.
  53:../../libDaisy//src/per/dac.h ****      ** The output range will be: 0V - VDDA
  54:../../libDaisy//src/per/dac.h ****      ** The resolution will be roughly: bitdepth / (VDDA - 0V) 
  55:../../libDaisy//src/per/dac.h ****      ***/
  56:../../libDaisy//src/per/dac.h ****     enum class BitDepth
  57:../../libDaisy//src/per/dac.h ****     {
  58:../../libDaisy//src/per/dac.h ****         BITS_8,
  59:../../libDaisy//src/per/dac.h ****         BITS_12
  60:../../libDaisy//src/per/dac.h ****     };
  61:../../libDaisy//src/per/dac.h **** 
  62:../../libDaisy//src/per/dac.h ****     /** Sets whether the DAC output is buffered for higher drive ability. */
  63:../../libDaisy//src/per/dac.h ****     enum class BufferState
  64:../../libDaisy//src/per/dac.h ****     {
  65:../../libDaisy//src/per/dac.h ****         ENABLED,
  66:../../libDaisy//src/per/dac.h ****         DISABLED,
  67:../../libDaisy//src/per/dac.h ****     };
  68:../../libDaisy//src/per/dac.h **** 
  69:../../libDaisy//src/per/dac.h ****     /** Configuration structure for initializing the DAC structure. */
  70:../../libDaisy//src/per/dac.h ****     struct Config
  71:../../libDaisy//src/per/dac.h ****     {
  72:../../libDaisy//src/per/dac.h ****         /** Target Samplerate in Hz used to configure the internal 
  73:../../libDaisy//src/per/dac.h ****          ** timebase for DMA mode. Does nothing in POLLING mode.
  74:../../libDaisy//src/per/dac.h ****          ** If the value is 0 at Init time this will default to 48000Hz 
  75:../../libDaisy//src/per/dac.h ****          ** otherwise the driver will attempt meet the target.*/
  76:../../libDaisy//src/per/dac.h ****         uint32_t target_samplerate;
  77:../../libDaisy//src/per/dac.h **** 
  78:../../libDaisy//src/per/dac.h ****         Channel     chn;
  79:../../libDaisy//src/per/dac.h ****         Mode        mode;
  80:../../libDaisy//src/per/dac.h ****         BitDepth    bitdepth;
  81:../../libDaisy//src/per/dac.h ****         BufferState buff_state;
  82:../../libDaisy//src/per/dac.h ****     };
  83:../../libDaisy//src/per/dac.h **** 
  84:../../libDaisy//src/per/dac.h ****     DacHandle() : pimpl_(nullptr) {}
 1766              		.loc 14 84 5 is_stmt 1 view .LVU412
 1767              	.LBB542:
ARM GAS  C:\Users\kgpol\AppData\Local\Temp\cc4o6iZe.s 			page 57


 1768              	.LBB543:
 1769              		.loc 14 84 33 is_stmt 0 view .LVU413
 1770 0014 0562     		str	r5, [r0, #32]
 1771              	.LVL104:
 1772              		.loc 14 84 33 view .LVU414
 1773              	.LBE543:
 1774              	.LBE542:
 1775              	.LBE541:
 1776              	.LBB544:
 1777              	.LBI544:
  40:../../libDaisy//src/hid/usb.h **** 
 1778              		.loc 8 40 5 is_stmt 1 view .LVU415
  40:../../libDaisy//src/hid/usb.h **** 
 1779              		.loc 8 40 5 is_stmt 0 view .LVU416
 1780              	.LBE544:
 1781              	.LBB545:
 1782              	.LBI545:
  96:../../libDaisy//src/sys/system.h ****     ~System() {}
 1783              		.loc 7 96 5 is_stmt 1 view .LVU417
  96:../../libDaisy//src/sys/system.h ****     ~System() {}
 1784              		.loc 7 96 5 is_stmt 0 view .LVU418
 1785              	.LBE545:
 1786              	.LBB546:
 1787              	.LBI546:
 1788              		.file 15 "../../libDaisy//src/per/sai.h"
   1:../../libDaisy//src/per/sai.h **** #pragma once
   2:../../libDaisy//src/per/sai.h **** #ifndef DSY_SAI_H
   3:../../libDaisy//src/per/sai.h **** #define DSY_SAI_H
   4:../../libDaisy//src/per/sai.h **** 
   5:../../libDaisy//src/per/sai.h **** #include "daisy_core.h"
   6:../../libDaisy//src/per/sai.h **** 
   7:../../libDaisy//src/per/sai.h **** namespace daisy
   8:../../libDaisy//src/per/sai.h **** {
   9:../../libDaisy//src/per/sai.h **** /** 
  10:../../libDaisy//src/per/sai.h ****  * Support for I2S Audio Protocol with different bit-depth, samplerate options
  11:../../libDaisy//src/per/sai.h ****  * Allows for master or slave, as well as freedom of selecting direction, 
  12:../../libDaisy//src/per/sai.h ****  * and other behavior for each peripheral, and block.
  13:../../libDaisy//src/per/sai.h ****  * 
  14:../../libDaisy//src/per/sai.h ****  * DMA Transfer commands must use buffers located within non-cached memory or use cache maintenance
  15:../../libDaisy//src/per/sai.h ****  * To declare an unitialized global element in the DMA memory section:
  16:../../libDaisy//src/per/sai.h ****  *    int32_t DSY_DMA_BUFFER_SECTOR my_buffer[96];
  17:../../libDaisy//src/per/sai.h ****  *
  18:../../libDaisy//src/per/sai.h ****  * Callback functions will be called once per half of the buffer. In the above example, 
  19:../../libDaisy//src/per/sai.h ****  * the callback function would be called once for every 48 samples.
  20:../../libDaisy//src/per/sai.h ****  * 
  21:../../libDaisy//src/per/sai.h ****  * Use SAI Handle like this:
  22:../../libDaisy//src/per/sai.h ****  * 
  23:../../libDaisy//src/per/sai.h ****  *  SaiHandle::Config sai_config;
  24:../../libDaisy//src/per/sai.h ****  *  sai_config.periph          = SaiHandle::Config::Peripheral::SAI_1;
  25:../../libDaisy//src/per/sai.h ****  *  sai_config.sr              = SaiHandle::Config::SampleRate::SAI_48KHZ;
  26:../../libDaisy//src/per/sai.h ****  *  sai_config.bit_depth       = SaiHandle::Config::BitDepth::SAI_24BIT;
  27:../../libDaisy//src/per/sai.h ****  *  sai_config.a_sync          = SaiHandle::Config::Sync::MASTER;
  28:../../libDaisy//src/per/sai.h ****  *  sai_config.b_sync          = SaiHandle::Config::Sync::SLAVE;
  29:../../libDaisy//src/per/sai.h ****  *  sai_config.a_dir           = SaiHandle::Config::Direction::RECEIVE;
  30:../../libDaisy//src/per/sai.h ****  *  sai_config.b_dir           = SaiHandle::Config::Direction::TRANSMIT;
  31:../../libDaisy//src/per/sai.h ****  *  sai_config.pin_config.fs   = {DSY_GPIOE, 4};
  32:../../libDaisy//src/per/sai.h ****  *  sai_config.pin_config.mclk = {DSY_GPIOE, 2};
ARM GAS  C:\Users\kgpol\AppData\Local\Temp\cc4o6iZe.s 			page 58


  33:../../libDaisy//src/per/sai.h ****  *  sai_config.pin_config.sck  = {DSY_GPIOE, 5};
  34:../../libDaisy//src/per/sai.h ****  *  sai_config.pin_config.sa   = {DSY_GPIOE, 6};
  35:../../libDaisy//src/per/sai.h ****  *  sai_config.pin_config.sb   = {DSY_GPIOE, 3};
  36:../../libDaisy//src/per/sai.h ****  *  // Then Initialize
  37:../../libDaisy//src/per/sai.h ****  *  SaiHandle sai;
  38:../../libDaisy//src/per/sai.h ****  *  sai.Init(sai_config);
  39:../../libDaisy//src/per/sai.h ****  *  // Now you can use it:
  40:../../libDaisy//src/per/sai.h ****  *  sai.StartDma(. . .);
  41:../../libDaisy//src/per/sai.h ****  */
  42:../../libDaisy//src/per/sai.h **** class SaiHandle
  43:../../libDaisy//src/per/sai.h **** {
  44:../../libDaisy//src/per/sai.h ****   public:
  45:../../libDaisy//src/per/sai.h ****     /** Contains settings for initialising an SAI Interface */
  46:../../libDaisy//src/per/sai.h ****     struct Config
  47:../../libDaisy//src/per/sai.h ****     {
  48:../../libDaisy//src/per/sai.h ****         /** Specifies the internal peripheral to use (mapped to different hardware pins) */
  49:../../libDaisy//src/per/sai.h ****         enum class Peripheral
  50:../../libDaisy//src/per/sai.h ****         {
  51:../../libDaisy//src/per/sai.h ****             SAI_1,
  52:../../libDaisy//src/per/sai.h ****             SAI_2,
  53:../../libDaisy//src/per/sai.h ****         };
  54:../../libDaisy//src/per/sai.h **** 
  55:../../libDaisy//src/per/sai.h ****         /** Rate at which samples will be streaming to/from the device. */
  56:../../libDaisy//src/per/sai.h ****         enum class SampleRate
  57:../../libDaisy//src/per/sai.h ****         {
  58:../../libDaisy//src/per/sai.h ****             SAI_8KHZ,
  59:../../libDaisy//src/per/sai.h ****             SAI_16KHZ,
  60:../../libDaisy//src/per/sai.h ****             SAI_32KHZ,
  61:../../libDaisy//src/per/sai.h ****             SAI_48KHZ,
  62:../../libDaisy//src/per/sai.h ****             SAI_96KHZ,
  63:../../libDaisy//src/per/sai.h ****         };
  64:../../libDaisy//src/per/sai.h **** 
  65:../../libDaisy//src/per/sai.h ****         /** Bit Depth that the hardware expects to be transferred to/from the device. */
  66:../../libDaisy//src/per/sai.h ****         enum class BitDepth
  67:../../libDaisy//src/per/sai.h ****         {
  68:../../libDaisy//src/per/sai.h ****             SAI_16BIT,
  69:../../libDaisy//src/per/sai.h ****             SAI_24BIT,
  70:../../libDaisy//src/per/sai.h ****             SAI_32BIT,
  71:../../libDaisy//src/per/sai.h ****         };
  72:../../libDaisy//src/per/sai.h **** 
  73:../../libDaisy//src/per/sai.h ****         /** Specifies whether a particular block is the master or the slave 
  74:../../libDaisy//src/per/sai.h ****          ** If both are set to slave, no MCLK signal will be used, and it is
  75:../../libDaisy//src/per/sai.h ****          ** expected that the codec will have its own xtal.
  76:../../libDaisy//src/per/sai.h ****          */
  77:../../libDaisy//src/per/sai.h ****         enum class Sync
  78:../../libDaisy//src/per/sai.h ****         {
  79:../../libDaisy//src/per/sai.h ****             MASTER,
  80:../../libDaisy//src/per/sai.h ****             SLAVE,
  81:../../libDaisy//src/per/sai.h ****         };
  82:../../libDaisy//src/per/sai.h **** 
  83:../../libDaisy//src/per/sai.h ****         /** Specifies the direction for each peripheral block. */
  84:../../libDaisy//src/per/sai.h ****         enum class Direction
  85:../../libDaisy//src/per/sai.h ****         {
  86:../../libDaisy//src/per/sai.h ****             TRANSMIT,
  87:../../libDaisy//src/per/sai.h ****             RECEIVE,
  88:../../libDaisy//src/per/sai.h ****         };
  89:../../libDaisy//src/per/sai.h **** 
ARM GAS  C:\Users\kgpol\AppData\Local\Temp\cc4o6iZe.s 			page 59


  90:../../libDaisy//src/per/sai.h ****         Peripheral periph;
  91:../../libDaisy//src/per/sai.h ****         struct
  92:../../libDaisy//src/per/sai.h ****         {
  93:../../libDaisy//src/per/sai.h ****             dsy_gpio_pin mclk, fs, sck, sa, sb;
  94:../../libDaisy//src/per/sai.h ****         } pin_config;
  95:../../libDaisy//src/per/sai.h ****         SampleRate sr;
  96:../../libDaisy//src/per/sai.h ****         BitDepth   bit_depth;
  97:../../libDaisy//src/per/sai.h ****         Sync       a_sync, b_sync;
  98:../../libDaisy//src/per/sai.h ****         Direction  a_dir, b_dir;
  99:../../libDaisy//src/per/sai.h ****     };
 100:../../libDaisy//src/per/sai.h **** 
 101:../../libDaisy//src/per/sai.h ****     /** Return values for SAI functions */
 102:../../libDaisy//src/per/sai.h ****     enum class Result
 103:../../libDaisy//src/per/sai.h ****     {
 104:../../libDaisy//src/per/sai.h ****         OK,
 105:../../libDaisy//src/per/sai.h ****         ERR,
 106:../../libDaisy//src/per/sai.h ****     };
 107:../../libDaisy//src/per/sai.h **** 
 108:../../libDaisy//src/per/sai.h ****     SaiHandle() : pimpl_(nullptr) {}
 1789              		.loc 15 108 5 is_stmt 1 view .LVU419
 1790              	.LBB547:
 1791              	.LBB548:
 1792              		.loc 15 108 33 is_stmt 0 view .LVU420
 1793 0016 C563     		str	r5, [r0, #60]
 1794              	.LVL105:
 1795              		.loc 15 108 33 view .LVU421
 1796              	.LBE548:
 1797              	.LBE547:
 1798              	.LBE546:
 1799              	.LBE550:
 1800              	.LBE567:
  24:delay-module.cpp **** static AnalogControl cv_0, cv_1, cv_2, cv_3;
 1801              		.loc 12 24 18 view .LVU422
 1802 0018 FFF7FEFF 		bl	__aeabi_atexit
 1803              	.LVL106:
 1804              	.LBB568:
 1805              	.LBI568:
  21:../../libDaisy//src/hid/ctrl.h ****     /** destructor */
 1806              		.loc 3 21 5 is_stmt 1 view .LVU423
  21:../../libDaisy//src/hid/ctrl.h ****     /** destructor */
 1807              		.loc 3 21 5 is_stmt 0 view .LVU424
 1808              	.LBE568:
  25:delay-module.cpp **** static GateIn clock, hold;
 1809              		.loc 12 25 22 view .LVU425
 1810 001c 2246     		mov	r2, r4
 1811 001e 2E49     		ldr	r1, .L64+12
 1812 0020 2E48     		ldr	r0, .L64+16
 1813 0022 FFF7FEFF 		bl	__aeabi_atexit
 1814              	.LVL107:
 1815              	.LBB569:
 1816              	.LBI569:
  21:../../libDaisy//src/hid/ctrl.h ****     /** destructor */
 1817              		.loc 3 21 5 is_stmt 1 view .LVU426
  21:../../libDaisy//src/hid/ctrl.h ****     /** destructor */
 1818              		.loc 3 21 5 is_stmt 0 view .LVU427
 1819              	.LBE569:
  25:delay-module.cpp **** static GateIn clock, hold;
ARM GAS  C:\Users\kgpol\AppData\Local\Temp\cc4o6iZe.s 			page 60


 1820              		.loc 12 25 28 view .LVU428
 1821 0026 2246     		mov	r2, r4
 1822 0028 2B49     		ldr	r1, .L64+12
 1823 002a 2D48     		ldr	r0, .L64+20
 1824 002c FFF7FEFF 		bl	__aeabi_atexit
 1825              	.LVL108:
 1826              	.LBB570:
 1827              	.LBI570:
  21:../../libDaisy//src/hid/ctrl.h ****     /** destructor */
 1828              		.loc 3 21 5 is_stmt 1 view .LVU429
  21:../../libDaisy//src/hid/ctrl.h ****     /** destructor */
 1829              		.loc 3 21 5 is_stmt 0 view .LVU430
 1830              	.LBE570:
  25:delay-module.cpp **** static GateIn clock, hold;
 1831              		.loc 12 25 34 view .LVU431
 1832 0030 2246     		mov	r2, r4
 1833 0032 2949     		ldr	r1, .L64+12
 1834 0034 2B48     		ldr	r0, .L64+24
 1835 0036 FFF7FEFF 		bl	__aeabi_atexit
 1836              	.LVL109:
 1837              	.LBB571:
 1838              	.LBI571:
  21:../../libDaisy//src/hid/ctrl.h ****     /** destructor */
 1839              		.loc 3 21 5 is_stmt 1 view .LVU432
  21:../../libDaisy//src/hid/ctrl.h ****     /** destructor */
 1840              		.loc 3 21 5 is_stmt 0 view .LVU433
 1841              	.LBE571:
  25:delay-module.cpp **** static GateIn clock, hold;
 1842              		.loc 12 25 40 view .LVU434
 1843 003a 2246     		mov	r2, r4
 1844 003c 2649     		ldr	r1, .L64+12
 1845 003e 2A48     		ldr	r0, .L64+28
 1846 0040 FFF7FEFF 		bl	__aeabi_atexit
 1847              	.LVL110:
 1848              	.LBB572:
 1849              	.LBI552:
  18:../../libDaisy//src/hid/gatein.h **** 
 1850              		.loc 4 18 5 is_stmt 1 view .LVU435
 1851              	.LBB565:
 1852              	.LBB554:
 1853              	.LBI554:
 1854              		.file 16 "../../libDaisy//src/per/gpio.h"
   1:../../libDaisy//src/per/gpio.h **** #pragma once
   2:../../libDaisy//src/per/gpio.h **** #ifndef DSY_GPIO_H
   3:../../libDaisy//src/per/gpio.h **** #define DSY_GPIO_H
   4:../../libDaisy//src/per/gpio.h **** #include "daisy_core.h"
   5:../../libDaisy//src/per/gpio.h **** 
   6:../../libDaisy//src/per/gpio.h **** #ifdef __cplusplus
   7:../../libDaisy//src/per/gpio.h **** 
   8:../../libDaisy//src/per/gpio.h **** namespace daisy
   9:../../libDaisy//src/per/gpio.h **** {
  10:../../libDaisy//src/per/gpio.h **** /** @brief General Purpose I/O control 
  11:../../libDaisy//src/per/gpio.h ****  *  @details peripheral control over a single GPIO
  12:../../libDaisy//src/per/gpio.h ****  *  @ingroup peripheral
  13:../../libDaisy//src/per/gpio.h ****  *   
  14:../../libDaisy//src/per/gpio.h ****  *  Button Input (with internal Pullup resistor)
  15:../../libDaisy//src/per/gpio.h ****  *  @include GPIO_Input.cpp 
ARM GAS  C:\Users\kgpol\AppData\Local\Temp\cc4o6iZe.s 			page 61


  16:../../libDaisy//src/per/gpio.h ****  * 
  17:../../libDaisy//src/per/gpio.h ****  *  Output Example (perfect for blinking an LED)
  18:../../libDaisy//src/per/gpio.h ****  *  @include GPIO_Output.cpp
  19:../../libDaisy//src/per/gpio.h ****  * 
  20:../../libDaisy//src/per/gpio.h **** */
  21:../../libDaisy//src/per/gpio.h **** class GPIO
  22:../../libDaisy//src/per/gpio.h **** {
  23:../../libDaisy//src/per/gpio.h ****   public:
  24:../../libDaisy//src/per/gpio.h ****     /** @brief Mode of operation for the specified GPIO */
  25:../../libDaisy//src/per/gpio.h ****     enum class Mode
  26:../../libDaisy//src/per/gpio.h ****     {
  27:../../libDaisy//src/per/gpio.h ****         INPUT,     /**< Input for reading state of pin */
  28:../../libDaisy//src/per/gpio.h ****         OUTPUT,    /**< Output w/ push-pull configuration */
  29:../../libDaisy//src/per/gpio.h ****         OUTPUT_OD, /**< Output w/ open-drain configuration */
  30:../../libDaisy//src/per/gpio.h ****         ANALOG,    /**< Analog for connection to ADC or DAC peripheral */
  31:../../libDaisy//src/per/gpio.h ****     };
  32:../../libDaisy//src/per/gpio.h **** 
  33:../../libDaisy//src/per/gpio.h ****     /** @brief Configures whether an internal Pull up or Pull down resistor is used. 
  34:../../libDaisy//src/per/gpio.h ****      *  
  35:../../libDaisy//src/per/gpio.h ****      * Internal Pull up/down resistors are typically 40k ohms, and will be between
  36:../../libDaisy//src/per/gpio.h ****      * 30k and 50k
  37:../../libDaisy//src/per/gpio.h ****      * 
  38:../../libDaisy//src/per/gpio.h ****      * When the Pin is configured in Analog mode, the pull up/down resistors are
  39:../../libDaisy//src/per/gpio.h ****      * disabled by hardware. 
  40:../../libDaisy//src/per/gpio.h ****      */
  41:../../libDaisy//src/per/gpio.h ****     enum class Pull
  42:../../libDaisy//src/per/gpio.h ****     {
  43:../../libDaisy//src/per/gpio.h ****         NOPULL,   /**< No pull up resistor */
  44:../../libDaisy//src/per/gpio.h ****         PULLUP,   /**< Internal pull up enabled */
  45:../../libDaisy//src/per/gpio.h ****         PULLDOWN, /**< Internal pull down enabled*/
  46:../../libDaisy//src/per/gpio.h ****     };
  47:../../libDaisy//src/per/gpio.h **** 
  48:../../libDaisy//src/per/gpio.h ****     /** @brief Output speed controls the drive strength, and slew rate of the pin */
  49:../../libDaisy//src/per/gpio.h ****     enum class Speed
  50:../../libDaisy//src/per/gpio.h ****     {
  51:../../libDaisy//src/per/gpio.h ****         LOW,
  52:../../libDaisy//src/per/gpio.h ****         MEDIUM,
  53:../../libDaisy//src/per/gpio.h ****         HIGH,
  54:../../libDaisy//src/per/gpio.h ****         VERY_HIGH,
  55:../../libDaisy//src/per/gpio.h ****     };
  56:../../libDaisy//src/per/gpio.h **** 
  57:../../libDaisy//src/per/gpio.h ****     /** @brief Configuration for a given GPIO */
  58:../../libDaisy//src/per/gpio.h ****     struct Config
  59:../../libDaisy//src/per/gpio.h ****     {
  60:../../libDaisy//src/per/gpio.h ****         Pin   pin;
  61:../../libDaisy//src/per/gpio.h ****         Mode  mode;
  62:../../libDaisy//src/per/gpio.h ****         Pull  pull;
  63:../../libDaisy//src/per/gpio.h ****         Speed speed;
  64:../../libDaisy//src/per/gpio.h **** 
  65:../../libDaisy//src/per/gpio.h ****         /** Constructor with no arguments will prepare an invalid GPIO set as
  66:../../libDaisy//src/per/gpio.h ****          *  an input, with no pullup. 
  67:../../libDaisy//src/per/gpio.h ****          */
  68:../../libDaisy//src/per/gpio.h ****         Config()
  69:../../libDaisy//src/per/gpio.h ****         : pin(), mode(Mode::INPUT), pull(Pull::NOPULL), speed(Speed::LOW)
  70:../../libDaisy//src/per/gpio.h ****         {
  71:../../libDaisy//src/per/gpio.h ****         }
  72:../../libDaisy//src/per/gpio.h ****     };
ARM GAS  C:\Users\kgpol\AppData\Local\Temp\cc4o6iZe.s 			page 62


  73:../../libDaisy//src/per/gpio.h **** 
  74:../../libDaisy//src/per/gpio.h ****     GPIO() {}
 1855              		.loc 16 74 5 view .LVU436
 1856              	.LBB555:
 1857              	.LBB556:
 1858              	.LBI556:
  68:../../libDaisy//src/per/gpio.h ****         : pin(), mode(Mode::INPUT), pull(Pull::NOPULL), speed(Speed::LOW)
 1859              		.loc 16 68 9 view .LVU437
 1860              	.LBB557:
 1861              	.LBB558:
 1862              	.LBB559:
 1863              	.LBI559:
 1864              		.file 17 "../../libDaisy//src/daisy_core.h"
   1:../../libDaisy//src/daisy_core.h **** #pragma once
   2:../../libDaisy//src/daisy_core.h **** #ifndef DSY_CORE_HW_H
   3:../../libDaisy//src/daisy_core.h **** #define DSY_CORE_HW_H /**< & */
   4:../../libDaisy//src/daisy_core.h **** #include <stdint.h>
   5:../../libDaisy//src/daisy_core.h **** #include <stdlib.h>
   6:../../libDaisy//src/daisy_core.h **** 
   7:../../libDaisy//src/daisy_core.h **** #if defined(_MSC_VER)
   8:../../libDaisy//src/daisy_core.h **** #define FORCE_INLINE __forceinline /**< & */
   9:../../libDaisy//src/daisy_core.h **** #elif defined(__clang__)
  10:../../libDaisy//src/daisy_core.h **** #define FORCE_INLINE inline __attribute__((always_inline)) /**< & */
  11:../../libDaisy//src/daisy_core.h **** #pragma clang diagnostic ignored "-Wduplicate-decl-specifier"
  12:../../libDaisy//src/daisy_core.h **** #elif defined(__GNUC__)
  13:../../libDaisy//src/daisy_core.h **** #define FORCE_INLINE inline __attribute__((always_inline)) /**< & */
  14:../../libDaisy//src/daisy_core.h **** #else
  15:../../libDaisy//src/daisy_core.h **** #error unknown compiler
  16:../../libDaisy//src/daisy_core.h **** #endif
  17:../../libDaisy//src/daisy_core.h **** 
  18:../../libDaisy//src/daisy_core.h **** /** @addtogroup utility
  19:../../libDaisy//src/daisy_core.h ****     @{
  20:../../libDaisy//src/daisy_core.h **** */
  21:../../libDaisy//src/daisy_core.h **** 
  22:../../libDaisy//src/daisy_core.h **** /** Macro for area of memory that is configured as cacheless
  23:../../libDaisy//src/daisy_core.h **** This should be used primarily for DMA buffers, and the like.
  24:../../libDaisy//src/daisy_core.h **** */
  25:../../libDaisy//src/daisy_core.h **** #define DMA_BUFFER_MEM_SECTION __attribute__((section(".sram1_bss")))
  26:../../libDaisy//src/daisy_core.h **** /** 
  27:../../libDaisy//src/daisy_core.h **** THE DTCM RAM section is also non-cached. However, is not suitable 
  28:../../libDaisy//src/daisy_core.h **** for DMA transfers. Performance is on par with internal SRAM w/ 
  29:../../libDaisy//src/daisy_core.h **** cache enabled.
  30:../../libDaisy//src/daisy_core.h **** */
  31:../../libDaisy//src/daisy_core.h **** #define DTCM_MEM_SECTION __attribute__((section(".dtcmram_bss")))
  32:../../libDaisy//src/daisy_core.h **** 
  33:../../libDaisy//src/daisy_core.h **** #define FBIPMAX 0.999985f             /**< close to 1.0f-LSB at 16 bit */
  34:../../libDaisy//src/daisy_core.h **** #define FBIPMIN (-FBIPMAX)            /**< - (1 - LSB) */
  35:../../libDaisy//src/daisy_core.h **** #define U82F_SCALE 0.0078740f         /**< 1 / 127 */
  36:../../libDaisy//src/daisy_core.h **** #define F2U8_SCALE 127.0f             /**< 128 - 1 */
  37:../../libDaisy//src/daisy_core.h **** #define S82F_SCALE 0.0078125f         /**< 1 / (2**7) */
  38:../../libDaisy//src/daisy_core.h **** #define F2S8_SCALE 127.0f             /**< (2 ** 7) - 1 */
  39:../../libDaisy//src/daisy_core.h **** #define S162F_SCALE 3.0517578125e-05f /**< 1 / (2** 15) */
  40:../../libDaisy//src/daisy_core.h **** #define F2S16_SCALE 32767.0f          /**< (2 ** 15) - 1 */
  41:../../libDaisy//src/daisy_core.h **** #define F2S24_SCALE 8388608.0f        /**< 2 ** 23 */
  42:../../libDaisy//src/daisy_core.h **** #define S242F_SCALE 1.192092896e-07f  /**< 1 / (2 ** 23) */
  43:../../libDaisy//src/daisy_core.h **** #define S24SIGN 0x800000              /**< 2 ** 23 */
  44:../../libDaisy//src/daisy_core.h **** #define S322F_SCALE 4.6566129e-10f    /**< 1 / (2** 31) */
ARM GAS  C:\Users\kgpol\AppData\Local\Temp\cc4o6iZe.s 			page 63


  45:../../libDaisy//src/daisy_core.h **** #define F2S32_SCALE 2147483647.f      /**< (2 ** 31) - 1 */
  46:../../libDaisy//src/daisy_core.h **** 
  47:../../libDaisy//src/daisy_core.h **** 
  48:../../libDaisy//src/daisy_core.h **** /** shorthand macro for simplifying the reading of the left 
  49:../../libDaisy//src/daisy_core.h ****  *  channel of a non-interleaved output buffer named out */
  50:../../libDaisy//src/daisy_core.h **** #define OUT_L out[0]
  51:../../libDaisy//src/daisy_core.h **** 
  52:../../libDaisy//src/daisy_core.h **** /** shorthand macro for simplifying the reading of the right 
  53:../../libDaisy//src/daisy_core.h ****  *  channel of a non-interleaved output buffer named out */
  54:../../libDaisy//src/daisy_core.h **** #define OUT_R out[1]
  55:../../libDaisy//src/daisy_core.h **** 
  56:../../libDaisy//src/daisy_core.h **** /** shorthand macro for simplifying the reading of the left 
  57:../../libDaisy//src/daisy_core.h ****  *  channel of a non-interleaved input buffer named in */
  58:../../libDaisy//src/daisy_core.h **** #define IN_L in[0]
  59:../../libDaisy//src/daisy_core.h **** 
  60:../../libDaisy//src/daisy_core.h **** /** shorthand macro for simplifying the reading of the right 
  61:../../libDaisy//src/daisy_core.h ****  *  channel of a non-interleaved input buffer named in */
  62:../../libDaisy//src/daisy_core.h **** #define IN_R in[1]
  63:../../libDaisy//src/daisy_core.h **** 
  64:../../libDaisy//src/daisy_core.h **** /** 
  65:../../libDaisy//src/daisy_core.h ****     Computes cube.
  66:../../libDaisy//src/daisy_core.h ****     \param x Number to be cubed
  67:../../libDaisy//src/daisy_core.h ****     \return x ^ 3
  68:../../libDaisy//src/daisy_core.h **** */
  69:../../libDaisy//src/daisy_core.h **** FORCE_INLINE float cube(float x)
  70:../../libDaisy//src/daisy_core.h **** {
  71:../../libDaisy//src/daisy_core.h ****     return (x * x) * x;
  72:../../libDaisy//src/daisy_core.h **** }
  73:../../libDaisy//src/daisy_core.h **** 
  74:../../libDaisy//src/daisy_core.h **** /** 
  75:../../libDaisy//src/daisy_core.h ****     Converts unsigned 8-bit to float
  76:../../libDaisy//src/daisy_core.h ****     \param x Number to be scaled.
  77:../../libDaisy//src/daisy_core.h ****     \return Scaled number.
  78:../../libDaisy//src/daisy_core.h **** */
  79:../../libDaisy//src/daisy_core.h **** FORCE_INLINE float u82f(uint8_t x)
  80:../../libDaisy//src/daisy_core.h **** {
  81:../../libDaisy//src/daisy_core.h ****     return ((float)x - 127.f) * U82F_SCALE;
  82:../../libDaisy//src/daisy_core.h **** }
  83:../../libDaisy//src/daisy_core.h **** 
  84:../../libDaisy//src/daisy_core.h **** /**
  85:../../libDaisy//src/daisy_core.h ****     Converts float to unsigned 8-bit
  86:../../libDaisy//src/daisy_core.h **** */
  87:../../libDaisy//src/daisy_core.h **** FORCE_INLINE uint8_t f2u8(float x)
  88:../../libDaisy//src/daisy_core.h **** {
  89:../../libDaisy//src/daisy_core.h ****     x = x <= FBIPMIN ? FBIPMIN : x;
  90:../../libDaisy//src/daisy_core.h ****     x = x >= FBIPMAX ? FBIPMAX : x;
  91:../../libDaisy//src/daisy_core.h ****     return (uint8_t)((x * F2U8_SCALE) + F2U8_SCALE);
  92:../../libDaisy//src/daisy_core.h **** }
  93:../../libDaisy//src/daisy_core.h **** 
  94:../../libDaisy//src/daisy_core.h **** 
  95:../../libDaisy//src/daisy_core.h **** /** 
  96:../../libDaisy//src/daisy_core.h ****     Converts Signed 8-bit to float
  97:../../libDaisy//src/daisy_core.h ****     \param x Number to be scaled.
  98:../../libDaisy//src/daisy_core.h ****     \return Scaled number.
  99:../../libDaisy//src/daisy_core.h **** */
 100:../../libDaisy//src/daisy_core.h **** FORCE_INLINE float s82f(int8_t x)
 101:../../libDaisy//src/daisy_core.h **** {
ARM GAS  C:\Users\kgpol\AppData\Local\Temp\cc4o6iZe.s 			page 64


 102:../../libDaisy//src/daisy_core.h ****     return (float)x * S82F_SCALE;
 103:../../libDaisy//src/daisy_core.h **** }
 104:../../libDaisy//src/daisy_core.h **** 
 105:../../libDaisy//src/daisy_core.h **** /**
 106:../../libDaisy//src/daisy_core.h ****     Converts float to Signed 8-bit
 107:../../libDaisy//src/daisy_core.h **** */
 108:../../libDaisy//src/daisy_core.h **** FORCE_INLINE int8_t f2s8(float x)
 109:../../libDaisy//src/daisy_core.h **** {
 110:../../libDaisy//src/daisy_core.h ****     x = x <= FBIPMIN ? FBIPMIN : x;
 111:../../libDaisy//src/daisy_core.h ****     x = x >= FBIPMAX ? FBIPMAX : x;
 112:../../libDaisy//src/daisy_core.h ****     return (int32_t)(x * F2S8_SCALE);
 113:../../libDaisy//src/daisy_core.h **** }
 114:../../libDaisy//src/daisy_core.h **** 
 115:../../libDaisy//src/daisy_core.h **** /** 
 116:../../libDaisy//src/daisy_core.h ****     Converts Signed 16-bit to float
 117:../../libDaisy//src/daisy_core.h ****     \param x Number to be scaled.
 118:../../libDaisy//src/daisy_core.h ****     \return Scaled number.
 119:../../libDaisy//src/daisy_core.h **** */
 120:../../libDaisy//src/daisy_core.h **** FORCE_INLINE float s162f(int16_t x)
 121:../../libDaisy//src/daisy_core.h **** {
 122:../../libDaisy//src/daisy_core.h ****     return (float)x * S162F_SCALE;
 123:../../libDaisy//src/daisy_core.h **** }
 124:../../libDaisy//src/daisy_core.h **** 
 125:../../libDaisy//src/daisy_core.h **** /**
 126:../../libDaisy//src/daisy_core.h ****     Converts float to Signed 16-bit
 127:../../libDaisy//src/daisy_core.h **** */
 128:../../libDaisy//src/daisy_core.h **** FORCE_INLINE int16_t f2s16(float x)
 129:../../libDaisy//src/daisy_core.h **** {
 130:../../libDaisy//src/daisy_core.h ****     x = x <= FBIPMIN ? FBIPMIN : x;
 131:../../libDaisy//src/daisy_core.h ****     x = x >= FBIPMAX ? FBIPMAX : x;
 132:../../libDaisy//src/daisy_core.h ****     return (int32_t)(x * F2S16_SCALE);
 133:../../libDaisy//src/daisy_core.h **** }
 134:../../libDaisy//src/daisy_core.h **** 
 135:../../libDaisy//src/daisy_core.h **** /**
 136:../../libDaisy//src/daisy_core.h ****     Converts Signed 24-bit to float
 137:../../libDaisy//src/daisy_core.h ****  */
 138:../../libDaisy//src/daisy_core.h **** FORCE_INLINE float s242f(int32_t x)
 139:../../libDaisy//src/daisy_core.h **** {
 140:../../libDaisy//src/daisy_core.h ****     x = (x ^ S24SIGN) - S24SIGN; //sign extend aka ((x<<8)>>8)
 141:../../libDaisy//src/daisy_core.h ****     return (float)x * S242F_SCALE;
 142:../../libDaisy//src/daisy_core.h **** }
 143:../../libDaisy//src/daisy_core.h **** /**
 144:../../libDaisy//src/daisy_core.h ****     Converts float to Signed 24-bit
 145:../../libDaisy//src/daisy_core.h ****  */
 146:../../libDaisy//src/daisy_core.h **** FORCE_INLINE int32_t f2s24(float x)
 147:../../libDaisy//src/daisy_core.h **** {
 148:../../libDaisy//src/daisy_core.h ****     x = x <= FBIPMIN ? FBIPMIN : x;
 149:../../libDaisy//src/daisy_core.h ****     x = x >= FBIPMAX ? FBIPMAX : x;
 150:../../libDaisy//src/daisy_core.h ****     return (int32_t)(x * F2S24_SCALE);
 151:../../libDaisy//src/daisy_core.h **** }
 152:../../libDaisy//src/daisy_core.h **** 
 153:../../libDaisy//src/daisy_core.h **** /**
 154:../../libDaisy//src/daisy_core.h ****     Converts Signed 32-bit to float
 155:../../libDaisy//src/daisy_core.h ****  */
 156:../../libDaisy//src/daisy_core.h **** FORCE_INLINE float s322f(int32_t x)
 157:../../libDaisy//src/daisy_core.h **** {
 158:../../libDaisy//src/daisy_core.h ****     return (float)x * S322F_SCALE;
ARM GAS  C:\Users\kgpol\AppData\Local\Temp\cc4o6iZe.s 			page 65


 159:../../libDaisy//src/daisy_core.h **** }
 160:../../libDaisy//src/daisy_core.h **** /**
 161:../../libDaisy//src/daisy_core.h ****     Converts float to Signed 24-bit
 162:../../libDaisy//src/daisy_core.h ****  */
 163:../../libDaisy//src/daisy_core.h **** FORCE_INLINE int32_t f2s32(float x)
 164:../../libDaisy//src/daisy_core.h **** {
 165:../../libDaisy//src/daisy_core.h ****     x = x <= FBIPMIN ? FBIPMIN : x;
 166:../../libDaisy//src/daisy_core.h ****     x = x >= FBIPMAX ? FBIPMAX : x;
 167:../../libDaisy//src/daisy_core.h ****     return (int32_t)(x * F2S32_SCALE);
 168:../../libDaisy//src/daisy_core.h **** }
 169:../../libDaisy//src/daisy_core.h **** 
 170:../../libDaisy//src/daisy_core.h **** 
 171:../../libDaisy//src/daisy_core.h **** /** Enums and a simple struct for defining a hardware pin on the MCU
 172:../../libDaisy//src/daisy_core.h ****  *  These correlate with the stm32 datasheet, and are used to configure
 173:../../libDaisy//src/daisy_core.h ****  *  the hardware.
 174:../../libDaisy//src/daisy_core.h ****  * 
 175:../../libDaisy//src/daisy_core.h ****  *  This along with the dsy_gpio_pin class should no longer be used.
 176:../../libDaisy//src/daisy_core.h ****  *  They are available for backwards compatability. 
 177:../../libDaisy//src/daisy_core.h ****  * 
 178:../../libDaisy//src/daisy_core.h ****  *  Please use GPIOPort enum and the Pin struct instead.
 179:../../libDaisy//src/daisy_core.h ****  */
 180:../../libDaisy//src/daisy_core.h **** typedef enum
 181:../../libDaisy//src/daisy_core.h **** {
 182:../../libDaisy//src/daisy_core.h ****     DSY_GPIOA, /**< & */
 183:../../libDaisy//src/daisy_core.h ****     DSY_GPIOB, /**< & */
 184:../../libDaisy//src/daisy_core.h ****     DSY_GPIOC, /**< & */
 185:../../libDaisy//src/daisy_core.h ****     DSY_GPIOD, /**< & */
 186:../../libDaisy//src/daisy_core.h ****     DSY_GPIOE, /**< & */
 187:../../libDaisy//src/daisy_core.h ****     DSY_GPIOF, /**< & */
 188:../../libDaisy//src/daisy_core.h ****     DSY_GPIOG, /**< & */
 189:../../libDaisy//src/daisy_core.h ****     DSY_GPIOH, /**< & */
 190:../../libDaisy//src/daisy_core.h ****     DSY_GPIOI, /**< & */
 191:../../libDaisy//src/daisy_core.h ****     DSY_GPIOJ, /**< & */
 192:../../libDaisy//src/daisy_core.h ****     DSY_GPIOK, /**< & */
 193:../../libDaisy//src/daisy_core.h ****     DSY_GPIOX, /** This is a non-existant port for unsupported bits of hardware. */
 194:../../libDaisy//src/daisy_core.h ****     DSY_GPIO_LAST, /** Final enum member */
 195:../../libDaisy//src/daisy_core.h **** } dsy_gpio_port;
 196:../../libDaisy//src/daisy_core.h **** 
 197:../../libDaisy//src/daisy_core.h **** /** Hardware define pins 
 198:../../libDaisy//src/daisy_core.h ****  *  
 199:../../libDaisy//src/daisy_core.h ****  *  The dsy_gpio_pin struct should no longer be used, and is only available for
 200:../../libDaisy//src/daisy_core.h ****  *  backwards compatability.
 201:../../libDaisy//src/daisy_core.h ****  * 
 202:../../libDaisy//src/daisy_core.h ****  *  Please use Pin struct instead.
 203:../../libDaisy//src/daisy_core.h ****  */
 204:../../libDaisy//src/daisy_core.h **** typedef struct
 205:../../libDaisy//src/daisy_core.h **** {
 206:../../libDaisy//src/daisy_core.h ****     dsy_gpio_port port; /**< & */
 207:../../libDaisy//src/daisy_core.h ****     uint8_t       pin;  /**< number 0-15 */
 208:../../libDaisy//src/daisy_core.h **** } dsy_gpio_pin;
 209:../../libDaisy//src/daisy_core.h **** 
 210:../../libDaisy//src/daisy_core.h **** /** Helper for creating pins from port/pin combos easily
 211:../../libDaisy//src/daisy_core.h ****  * 
 212:../../libDaisy//src/daisy_core.h ****  *  The dsy_gpio_pin struct should no longer be used, and is only available for
 213:../../libDaisy//src/daisy_core.h ****  *  backwards compatability.
 214:../../libDaisy//src/daisy_core.h ****  * 
 215:../../libDaisy//src/daisy_core.h ****  *  Please use Pin struct instead.
ARM GAS  C:\Users\kgpol\AppData\Local\Temp\cc4o6iZe.s 			page 66


 216:../../libDaisy//src/daisy_core.h **** */
 217:../../libDaisy//src/daisy_core.h **** FORCE_INLINE dsy_gpio_pin dsy_pin(dsy_gpio_port port, uint8_t pin)
 218:../../libDaisy//src/daisy_core.h **** {
 219:../../libDaisy//src/daisy_core.h ****     dsy_gpio_pin p;
 220:../../libDaisy//src/daisy_core.h ****     p.port = port;
 221:../../libDaisy//src/daisy_core.h ****     p.pin  = pin;
 222:../../libDaisy//src/daisy_core.h ****     return p;
 223:../../libDaisy//src/daisy_core.h **** }
 224:../../libDaisy//src/daisy_core.h **** 
 225:../../libDaisy//src/daisy_core.h **** /** Helper for testing sameness of two dsy_gpio_pins
 226:../../libDaisy//src/daisy_core.h ****  *  \return    1 if same, 0 if different
 227:../../libDaisy//src/daisy_core.h ****  * 
 228:../../libDaisy//src/daisy_core.h ****  *  The dsy_gpio_pin struct should no longer be used, and is only available for
 229:../../libDaisy//src/daisy_core.h ****  *  backwards compatability.
 230:../../libDaisy//src/daisy_core.h ****  * 
 231:../../libDaisy//src/daisy_core.h ****  *  Please use Pin struct instead.
 232:../../libDaisy//src/daisy_core.h ****  */
 233:../../libDaisy//src/daisy_core.h **** FORCE_INLINE uint8_t dsy_pin_cmp(dsy_gpio_pin *a, dsy_gpio_pin *b)
 234:../../libDaisy//src/daisy_core.h **** {
 235:../../libDaisy//src/daisy_core.h ****     return ((a->port == b->port) && (a->pin == b->pin));
 236:../../libDaisy//src/daisy_core.h **** }
 237:../../libDaisy//src/daisy_core.h **** 
 238:../../libDaisy//src/daisy_core.h **** #ifdef __cplusplus
 239:../../libDaisy//src/daisy_core.h **** 
 240:../../libDaisy//src/daisy_core.h **** namespace daisy
 241:../../libDaisy//src/daisy_core.h **** {
 242:../../libDaisy//src/daisy_core.h **** /** @brief GPIO Port names */
 243:../../libDaisy//src/daisy_core.h **** enum GPIOPort
 244:../../libDaisy//src/daisy_core.h **** {
 245:../../libDaisy//src/daisy_core.h ****     PORTA, /**< Port A */
 246:../../libDaisy//src/daisy_core.h ****     PORTB, /**< Port B */
 247:../../libDaisy//src/daisy_core.h ****     PORTC, /**< Port C */
 248:../../libDaisy//src/daisy_core.h ****     PORTD, /**< Port D */
 249:../../libDaisy//src/daisy_core.h ****     PORTE, /**< Port E */
 250:../../libDaisy//src/daisy_core.h ****     PORTF, /**< Port F */
 251:../../libDaisy//src/daisy_core.h ****     PORTG, /**< Port G */
 252:../../libDaisy//src/daisy_core.h ****     PORTH, /**< Port H */
 253:../../libDaisy//src/daisy_core.h ****     PORTI, /**< Port I */
 254:../../libDaisy//src/daisy_core.h ****     PORTJ, /**< Port J */
 255:../../libDaisy//src/daisy_core.h ****     PORTK, /**< Port K */
 256:../../libDaisy//src/daisy_core.h ****     PORTX, /**< Used as a dummy port to signal an invalid pin. */
 257:../../libDaisy//src/daisy_core.h **** };
 258:../../libDaisy//src/daisy_core.h **** 
 259:../../libDaisy//src/daisy_core.h **** /** @brief representation of hardware port/pin combination */
 260:../../libDaisy//src/daisy_core.h **** struct Pin
 261:../../libDaisy//src/daisy_core.h **** {
 262:../../libDaisy//src/daisy_core.h ****     GPIOPort port;
 263:../../libDaisy//src/daisy_core.h ****     uint8_t  pin;
 264:../../libDaisy//src/daisy_core.h **** 
 265:../../libDaisy//src/daisy_core.h ****     /** @brief Constructor creates a valid pin. 
 266:../../libDaisy//src/daisy_core.h ****      *  @param pt GPIOPort between PA, and PK corresponding to STM32 Port.
 267:../../libDaisy//src/daisy_core.h ****      *  @param pn pin number in range of 0-15
 268:../../libDaisy//src/daisy_core.h ****     */
 269:../../libDaisy//src/daisy_core.h ****     constexpr Pin(const GPIOPort pt, const uint8_t pn) : port(pt), pin(pn) {}
 270:../../libDaisy//src/daisy_core.h **** 
 271:../../libDaisy//src/daisy_core.h ****     /** @brief Basic Constructor creates an invalid Pin object */
 272:../../libDaisy//src/daisy_core.h ****     constexpr Pin() : port(PORTX), pin(255) {}
ARM GAS  C:\Users\kgpol\AppData\Local\Temp\cc4o6iZe.s 			page 67


 1865              		.loc 17 272 15 view .LVU438
 1866              		.loc 17 272 15 is_stmt 0 view .LVU439
 1867              	.LBE559:
 1868              	.LBE558:
 1869              	.LBE557:
 1870              	.LBE556:
 1871              	.LBE555:
 1872              	.LBE554:
  18:../../libDaisy//src/hid/gatein.h **** 
 1873              		.loc 4 18 14 view .LVU440
 1874 0044 2948     		ldr	r0, .L64+32
 1875              	.LBE565:
 1876              	.LBE572:
  26:delay-module.cpp **** static Led led_1_b, led_1_r, led_2_b, led_2_r;
 1877              		.loc 12 26 15 view .LVU441
 1878 0046 2246     		mov	r2, r4
 1879 0048 2949     		ldr	r1, .L64+36
 1880              	.LBB573:
 1881              	.LBB566:
  18:../../libDaisy//src/hid/gatein.h **** 
 1882              		.loc 4 18 14 view .LVU442
 1883 004a C0E90065 		strd	r6, r5, [r0]
 1884              	.LBB564:
 1885              	.LBB563:
 1886              	.LBB562:
 1887              	.LBB561:
 1888              	.LBB560:
  69:../../libDaisy//src/per/gpio.h ****         {
 1889              		.loc 16 69 73 view .LVU443
 1890 004e C0E90255 		strd	r5, r5, [r0, #8]
 1891              	.LVL111:
  69:../../libDaisy//src/per/gpio.h ****         {
 1892              		.loc 16 69 73 view .LVU444
 1893              	.LBE560:
 1894              	.LBE561:
 1895              	.LBE562:
 1896              	.LBE563:
 1897              	.LBE564:
 1898              	.LBE566:
 1899              	.LBE573:
  26:delay-module.cpp **** static Led led_1_b, led_1_r, led_2_b, led_2_r;
 1900              		.loc 12 26 15 view .LVU445
 1901 0052 FFF7FEFF 		bl	__aeabi_atexit
 1902              	.LVL112:
 1903              	.LBB574:
 1904              	.LBI574:
  18:../../libDaisy//src/hid/gatein.h **** 
 1905              		.loc 4 18 5 is_stmt 1 view .LVU446
 1906              	.LBB575:
 1907              	.LBB576:
 1908              	.LBI576:
 1909              		.loc 16 74 5 view .LVU447
 1910              	.LBB577:
 1911              	.LBB578:
 1912              	.LBI578:
  68:../../libDaisy//src/per/gpio.h ****         : pin(), mode(Mode::INPUT), pull(Pull::NOPULL), speed(Speed::LOW)
 1913              		.loc 16 68 9 view .LVU448
ARM GAS  C:\Users\kgpol\AppData\Local\Temp\cc4o6iZe.s 			page 68


 1914              	.LBB579:
 1915              	.LBB580:
 1916              	.LBB581:
 1917              	.LBI581:
 1918              		.loc 17 272 15 view .LVU449
 1919              		.loc 17 272 15 is_stmt 0 view .LVU450
 1920              	.LBE581:
 1921              	.LBE580:
 1922              	.LBE579:
 1923              	.LBE578:
 1924              	.LBE577:
 1925              	.LBE576:
  18:../../libDaisy//src/hid/gatein.h **** 
 1926              		.loc 4 18 14 view .LVU451
 1927 0056 2748     		ldr	r0, .L64+40
 1928              	.LBE575:
 1929              	.LBE574:
  26:delay-module.cpp **** static Led led_1_b, led_1_r, led_2_b, led_2_r;
 1930              		.loc 12 26 22 view .LVU452
 1931 0058 2246     		mov	r2, r4
 1932 005a 2549     		ldr	r1, .L64+36
 1933              	.LBB588:
 1934              	.LBB587:
  18:../../libDaisy//src/hid/gatein.h **** 
 1935              		.loc 4 18 14 view .LVU453
 1936 005c 0660     		str	r6, [r0]
 1937              	.LBB586:
 1938              	.LBB585:
 1939              	.LBB584:
 1940              	.LBB583:
 1941              	.LBB582:
  69:../../libDaisy//src/per/gpio.h ****         {
 1942              		.loc 16 69 73 view .LVU454
 1943 005e C560     		str	r5, [r0, #12]
 1944              	.LVL113:
  69:../../libDaisy//src/per/gpio.h ****         {
 1945              		.loc 16 69 73 view .LVU455
 1946 0060 C0E90155 		strd	r5, r5, [r0, #4]
 1947              	.LBE582:
 1948              	.LBE583:
 1949              	.LBE584:
 1950              	.LBE585:
 1951              	.LBE586:
 1952              	.LBE587:
 1953              	.LBE588:
  26:delay-module.cpp **** static Led led_1_b, led_1_r, led_2_b, led_2_r;
 1954              		.loc 12 26 22 view .LVU456
 1955 0064 FFF7FEFF 		bl	__aeabi_atexit
 1956              	.LVL114:
 1957              	.LBB589:
 1958              	.LBI589:
  24:../../libDaisy//src/hid/led.h ****     ~Led() {}
 1959              		.loc 5 24 5 is_stmt 1 view .LVU457
  24:../../libDaisy//src/hid/led.h ****     ~Led() {}
 1960              		.loc 5 24 5 is_stmt 0 view .LVU458
 1961              	.LBE589:
  27:delay-module.cpp **** static CrossFade cross_fader;
ARM GAS  C:\Users\kgpol\AppData\Local\Temp\cc4o6iZe.s 			page 69


 1962              		.loc 12 27 12 view .LVU459
 1963 0068 2246     		mov	r2, r4
 1964 006a 2349     		ldr	r1, .L64+44
 1965 006c 2348     		ldr	r0, .L64+48
 1966 006e FFF7FEFF 		bl	__aeabi_atexit
 1967              	.LVL115:
 1968              	.LBB590:
 1969              	.LBI590:
  24:../../libDaisy//src/hid/led.h ****     ~Led() {}
 1970              		.loc 5 24 5 is_stmt 1 view .LVU460
  24:../../libDaisy//src/hid/led.h ****     ~Led() {}
 1971              		.loc 5 24 5 is_stmt 0 view .LVU461
 1972              	.LBE590:
  27:delay-module.cpp **** static CrossFade cross_fader;
 1973              		.loc 12 27 21 view .LVU462
 1974 0072 2246     		mov	r2, r4
 1975 0074 2049     		ldr	r1, .L64+44
 1976 0076 2248     		ldr	r0, .L64+52
 1977 0078 FFF7FEFF 		bl	__aeabi_atexit
 1978              	.LVL116:
 1979              	.LBB591:
 1980              	.LBI591:
  24:../../libDaisy//src/hid/led.h ****     ~Led() {}
 1981              		.loc 5 24 5 is_stmt 1 view .LVU463
  24:../../libDaisy//src/hid/led.h ****     ~Led() {}
 1982              		.loc 5 24 5 is_stmt 0 view .LVU464
 1983              	.LBE591:
  27:delay-module.cpp **** static CrossFade cross_fader;
 1984              		.loc 12 27 30 view .LVU465
 1985 007c 2246     		mov	r2, r4
 1986 007e 1E49     		ldr	r1, .L64+44
 1987 0080 2048     		ldr	r0, .L64+56
 1988 0082 FFF7FEFF 		bl	__aeabi_atexit
 1989              	.LVL117:
 1990              	.LBB592:
 1991              	.LBI592:
  24:../../libDaisy//src/hid/led.h ****     ~Led() {}
 1992              		.loc 5 24 5 is_stmt 1 view .LVU466
  24:../../libDaisy//src/hid/led.h ****     ~Led() {}
 1993              		.loc 5 24 5 is_stmt 0 view .LVU467
 1994              	.LBE592:
  29:delay-module.cpp **** 
 1995              		.loc 12 29 15 view .LVU468
 1996 0086 204D     		ldr	r5, .L64+60
  27:delay-module.cpp **** static CrossFade cross_fader;
 1997              		.loc 12 27 39 view .LVU469
 1998 0088 2246     		mov	r2, r4
 1999 008a 1B49     		ldr	r1, .L64+44
 2000 008c 1F48     		ldr	r0, .L64+64
 2001 008e FFF7FEFF 		bl	__aeabi_atexit
 2002              	.LVL118:
 2003              	.LBB593:
 2004              	.LBI593:
  44:../../DaisySP//Source/Dynamics/crossfade.h ****     ~CrossFade() {}
 2005              		.loc 1 44 5 is_stmt 1 view .LVU470
  44:../../DaisySP//Source/Dynamics/crossfade.h ****     ~CrossFade() {}
 2006              		.loc 1 44 5 is_stmt 0 view .LVU471
ARM GAS  C:\Users\kgpol\AppData\Local\Temp\cc4o6iZe.s 			page 70


 2007              	.LBE593:
  28:delay-module.cpp **** static Switch switch_1, switch_2;
 2008              		.loc 12 28 18 view .LVU472
 2009 0092 2246     		mov	r2, r4
 2010 0094 1E49     		ldr	r1, .L64+68
 2011 0096 1F48     		ldr	r0, .L64+72
 2012 0098 FFF7FEFF 		bl	__aeabi_atexit
 2013              	.LVL119:
 2014              	.LBB594:
 2015              	.LBI594:
  41:../../libDaisy//src/hid/switch.h ****     ~Switch() {}
 2016              		.loc 2 41 5 is_stmt 1 view .LVU473
  41:../../libDaisy//src/hid/switch.h ****     ~Switch() {}
 2017              		.loc 2 41 5 is_stmt 0 view .LVU474
 2018              	.LBE594:
  29:delay-module.cpp **** 
 2019              		.loc 12 29 15 view .LVU475
 2020 009c 2246     		mov	r2, r4
 2021 009e 2946     		mov	r1, r5
 2022 00a0 1D48     		ldr	r0, .L64+76
 2023 00a2 FFF7FEFF 		bl	__aeabi_atexit
 2024              	.LVL120:
 2025              	.LBB595:
 2026              	.LBI595:
  41:../../libDaisy//src/hid/switch.h ****     ~Switch() {}
 2027              		.loc 2 41 5 is_stmt 1 view .LVU476
  41:../../libDaisy//src/hid/switch.h ****     ~Switch() {}
 2028              		.loc 2 41 5 is_stmt 0 view .LVU477
 2029              	.LBE595:
  29:delay-module.cpp **** 
 2030              		.loc 12 29 25 view .LVU478
 2031 00a6 2946     		mov	r1, r5
  36:delay-module.cpp **** static DelayLine<float, MAX_DELAY> DSY_SDRAM_BSS delay_r;
 2032              		.loc 12 36 50 view .LVU479
 2033 00a8 1C4D     		ldr	r5, .L64+80
  29:delay-module.cpp **** 
 2034              		.loc 12 29 25 view .LVU480
 2035 00aa 2246     		mov	r2, r4
 2036 00ac 1C48     		ldr	r0, .L64+84
 2037 00ae FFF7FEFF 		bl	__aeabi_atexit
 2038              	.LVL121:
 2039              	.LBB596:
 2040              	.LBI596:
  31:../../DaisySP//Source/Utility/delayline.h ****     ~DelayLine() {}
 2041              		.loc 11 31 5 is_stmt 1 view .LVU481
  31:../../DaisySP//Source/Utility/delayline.h ****     ~DelayLine() {}
 2042              		.loc 11 31 5 is_stmt 0 view .LVU482
 2043              	.LBE596:
  36:delay-module.cpp **** static DelayLine<float, MAX_DELAY> DSY_SDRAM_BSS delay_r;
 2044              		.loc 12 36 50 view .LVU483
 2045 00b2 2246     		mov	r2, r4
 2046 00b4 2946     		mov	r1, r5
 2047 00b6 1B48     		ldr	r0, .L64+88
 2048 00b8 FFF7FEFF 		bl	__aeabi_atexit
 2049              	.LVL122:
 2050              	.LBB597:
 2051              	.LBI597:
ARM GAS  C:\Users\kgpol\AppData\Local\Temp\cc4o6iZe.s 			page 71


  31:../../DaisySP//Source/Utility/delayline.h ****     ~DelayLine() {}
 2052              		.loc 11 31 5 is_stmt 1 view .LVU484
  31:../../DaisySP//Source/Utility/delayline.h ****     ~DelayLine() {}
 2053              		.loc 11 31 5 is_stmt 0 view .LVU485
 2054              	.LBE597:
  37:delay-module.cpp **** 
 2055              		.loc 12 37 50 view .LVU486
 2056 00bc 2246     		mov	r2, r4
 2057 00be 2946     		mov	r1, r5
 2058 00c0 1948     		ldr	r0, .L64+92
 2059              	.LBE598:
 2060              	.LBE600:
 2061              		.loc 12 236 1 view .LVU487
 2062 00c2 BDE87040 		pop	{r4, r5, r6, lr}
 2063              		.cfi_restore 14
 2064              		.cfi_restore 6
 2065              		.cfi_restore 5
 2066              		.cfi_restore 4
 2067              		.cfi_def_cfa_offset 0
 2068              	.LBB601:
 2069              	.LBB599:
  37:delay-module.cpp **** 
 2070              		.loc 12 37 50 view .LVU488
 2071 00c6 FFF7FEBF 		b	__aeabi_atexit
 2072              	.LVL123:
 2073              	.L65:
 2074 00ca 00BF     		.align	2
 2075              	.L64:
 2076 00cc 00000000 		.word	.LANCHOR5
 2077 00d0 00000000 		.word	__dso_handle
 2078 00d4 00000000 		.word	_ZN5daisy9DaisySeedD1Ev
 2079 00d8 00000000 		.word	_ZN5daisy13AnalogControlD1Ev
 2080 00dc 00000000 		.word	.LANCHOR0
 2081 00e0 00000000 		.word	.LANCHOR1
 2082 00e4 00000000 		.word	.LANCHOR2
 2083 00e8 00000000 		.word	.LANCHOR3
 2084 00ec 00000000 		.word	.LANCHOR7
 2085 00f0 00000000 		.word	_ZN5daisy6GateInD1Ev
 2086 00f4 00000000 		.word	.LANCHOR9
 2087 00f8 00000000 		.word	_ZN5daisy3LedD1Ev
 2088 00fc 00000000 		.word	.LANCHOR12
 2089 0100 00000000 		.word	.LANCHOR13
 2090 0104 00000000 		.word	.LANCHOR14
 2091 0108 00000000 		.word	_ZN5daisy6SwitchD1Ev
 2092 010c 00000000 		.word	.LANCHOR15
 2093 0110 00000000 		.word	_ZN7daisysp9CrossFadeD1Ev
 2094 0114 00000000 		.word	.LANCHOR4
 2095 0118 00000000 		.word	.LANCHOR10
 2096 011c 00000000 		.word	_ZN7daisysp9DelayLineIfLj960000EED1Ev
 2097 0120 00000000 		.word	.LANCHOR11
 2098 0124 0C983A00 		.word	_ZL7delay_l
 2099 0128 00000000 		.word	_ZL7delay_r
 2100              	.LBE599:
 2101              	.LBE601:
 2102              		.cfi_endproc
 2103              	.LFE5263:
 2105              		.section	.init_array,"aw",%init_array
ARM GAS  C:\Users\kgpol\AppData\Local\Temp\cc4o6iZe.s 			page 72


 2106              		.align	2
 2107 0000 00000000 		.word	_GLOBAL__sub_I_clock_sync(target1)
 2108              		.global	time_range
 2109              		.global	clock_sync
 2110              		.section	.bss._ZL11cross_fader,"aw",%nobits
 2111              		.align	2
 2112              		.set	.LANCHOR4,. + 0
 2115              	_ZL11cross_fader:
 2116 0000 00000000 		.space	8
 2116      00000000 
 2117              		.section	.bss._ZL2hw,"aw",%nobits
 2118              		.align	2
 2119              		.set	.LANCHOR5,. + 0
 2122              	_ZL2hw:
 2123 0000 00000000 		.space	64
 2123      00000000 
 2123      00000000 
 2123      00000000 
 2123      00000000 
 2124              		.section	.bss._ZL4cv_0,"aw",%nobits
 2125              		.align	2
 2126              		.set	.LANCHOR0,. + 0
 2129              	_ZL4cv_0:
 2130 0000 00000000 		.space	32
 2130      00000000 
 2130      00000000 
 2130      00000000 
 2130      00000000 
 2131              		.section	.bss._ZL4cv_1,"aw",%nobits
 2132              		.align	2
 2133              		.set	.LANCHOR1,. + 0
 2136              	_ZL4cv_1:
 2137 0000 00000000 		.space	32
 2137      00000000 
 2137      00000000 
 2137      00000000 
 2137      00000000 
 2138              		.section	.bss._ZL4cv_2,"aw",%nobits
 2139              		.align	2
 2140              		.set	.LANCHOR2,. + 0
 2143              	_ZL4cv_2:
 2144 0000 00000000 		.space	32
 2144      00000000 
 2144      00000000 
 2144      00000000 
 2144      00000000 
 2145              		.section	.bss._ZL4cv_3,"aw",%nobits
 2146              		.align	2
 2147              		.set	.LANCHOR3,. + 0
 2150              	_ZL4cv_3:
 2151 0000 00000000 		.space	32
 2151      00000000 
 2151      00000000 
 2151      00000000 
 2151      00000000 
 2152              		.section	.bss._ZL4hold,"aw",%nobits
 2153              		.align	2
ARM GAS  C:\Users\kgpol\AppData\Local\Temp\cc4o6iZe.s 			page 73


 2154              		.set	.LANCHOR9,. + 0
 2157              	_ZL4hold:
 2158 0000 00000000 		.space	24
 2158      00000000 
 2158      00000000 
 2158      00000000 
 2158      00000000 
 2159              		.section	.bss._ZL5clock,"aw",%nobits
 2160              		.align	2
 2161              		.set	.LANCHOR7,. + 0
 2164              	_ZL5clock:
 2165 0000 00000000 		.space	24
 2165      00000000 
 2165      00000000 
 2165      00000000 
 2165      00000000 
 2166              		.section	.bss._ZL7led_1_b,"aw",%nobits
 2167              		.align	2
 2168              		.set	.LANCHOR12,. + 0
 2171              	_ZL7led_1_b:
 2172 0000 00000000 		.space	28
 2172      00000000 
 2172      00000000 
 2172      00000000 
 2172      00000000 
 2173              		.section	.bss._ZL7led_1_r,"aw",%nobits
 2174              		.align	2
 2175              		.set	.LANCHOR13,. + 0
 2178              	_ZL7led_1_r:
 2179 0000 00000000 		.space	28
 2179      00000000 
 2179      00000000 
 2179      00000000 
 2179      00000000 
 2180              		.section	.bss._ZL7led_2_b,"aw",%nobits
 2181              		.align	2
 2182              		.set	.LANCHOR14,. + 0
 2185              	_ZL7led_2_b:
 2186 0000 00000000 		.space	28
 2186      00000000 
 2186      00000000 
 2186      00000000 
 2186      00000000 
 2187              		.section	.bss._ZL7led_2_r,"aw",%nobits
 2188              		.align	2
 2189              		.set	.LANCHOR15,. + 0
 2192              	_ZL7led_2_r:
 2193 0000 00000000 		.space	28
 2193      00000000 
 2193      00000000 
 2193      00000000 
 2193      00000000 
 2194              		.section	.bss._ZL8switch_1,"aw",%nobits
 2195              		.align	2
 2196              		.set	.LANCHOR10,. + 0
 2199              	_ZL8switch_1:
 2200 0000 00000000 		.space	16
ARM GAS  C:\Users\kgpol\AppData\Local\Temp\cc4o6iZe.s 			page 74


 2200      00000000 
 2200      00000000 
 2200      00000000 
 2201              		.section	.bss._ZL8switch_2,"aw",%nobits
 2202              		.align	2
 2203              		.set	.LANCHOR11,. + 0
 2206              	_ZL8switch_2:
 2207 0000 00000000 		.space	16
 2207      00000000 
 2207      00000000 
 2207      00000000 
 2208              		.section	.bss.clock_sync,"aw",%nobits
 2209              		.set	.LANCHOR16,. + 0
 2212              	clock_sync:
 2213 0000 00       		.space	1
 2214              		.section	.bss.time_range,"aw",%nobits
 2215              		.align	2
 2216              		.set	.LANCHOR17,. + 0
 2219              	time_range:
 2220 0000 00000000 		.space	4
 2221              		.section	.rodata._ZN5daisy4seedL3D26E,"a"
 2222              		.align	2
 2223              		.set	.LANCHOR6,. + 0
 2226              	_ZN5daisy4seedL3D26E:
 2227 0000 03       		.byte	3
 2228 0001 0B       		.byte	11
 2229              		.section	.rodata._ZN5daisy4seedL3D27E,"a"
 2230              		.align	2
 2231              		.set	.LANCHOR8,. + 0
 2234              	_ZN5daisy4seedL3D27E:
 2235 0000 06       		.byte	6
 2236 0001 09       		.byte	9
 2237              		.section	.sdram_bss,"aw"
 2238              		.align	2
 2241              	_ZL7delay_r:
 2242 0000 00000000 		.space	3840012
 2242      00000000 
 2242      00000000 
 2242      00000000 
 2242      00000000 
 2245              	_ZL7delay_l:
 2246 3a980c 00000000 		.space	3840012
 2246      00000000 
 2246      00000000 
 2246      00000000 
 2246      00000000 
 2247              		.text
 2248              	.Letext0:
 2249              		.file 18 "c:\\program files\\daisytoolchain\\arm-none-eabi\\include\\machine\\_default_types.h"
 2250              		.file 19 "c:\\program files\\daisytoolchain\\arm-none-eabi\\include\\sys\\_stdint.h"
 2251              		.file 20 "c:\\program files\\daisytoolchain\\arm-none-eabi\\include\\stdint.h"
 2252              		.file 21 "c:\\program files\\daisytoolchain\\lib\\gcc\\arm-none-eabi\\10.2.1\\include\\stddef.h"
 2253              		.file 22 "c:\\program files\\daisytoolchain\\arm-none-eabi\\include\\c++\\10.2.1\\cmath"
 2254              		.file 23 "c:\\program files\\daisytoolchain\\arm-none-eabi\\include\\c++\\10.2.1\\bits\\std_abs.h"
 2255              		.file 24 "c:\\program files\\daisytoolchain\\arm-none-eabi\\include\\c++\\10.2.1\\cstdint"
 2256              		.file 25 "c:\\program files\\daisytoolchain\\arm-none-eabi\\include\\c++\\10.2.1\\cstdlib"
 2257              		.file 26 "c:\\program files\\daisytoolchain\\arm-none-eabi\\include\\c++\\10.2.1\\type_traits"
ARM GAS  C:\Users\kgpol\AppData\Local\Temp\cc4o6iZe.s 			page 75


 2258              		.file 27 "c:\\program files\\daisytoolchain\\arm-none-eabi\\include\\c++\\10.2.1\\debug\\debug.h"
 2259              		.file 28 "c:\\program files\\daisytoolchain\\arm-none-eabi\\include\\c++\\10.2.1\\cwchar"
 2260              		.file 29 "c:\\program files\\daisytoolchain\\arm-none-eabi\\include\\c++\\10.2.1\\bits\\stl_pair.h
 2261              		.file 30 "c:\\program files\\daisytoolchain\\arm-none-eabi\\include\\c++\\10.2.1\\bits\\exception_
 2262              		.file 31 "c:\\program files\\daisytoolchain\\arm-none-eabi\\include\\c++\\10.2.1\\arm-none-eabi\\t
 2263              		.file 32 "c:\\program files\\daisytoolchain\\arm-none-eabi\\include\\c++\\10.2.1\\clocale"
 2264              		.file 33 "c:\\program files\\daisytoolchain\\arm-none-eabi\\include\\c++\\10.2.1\\cstdio"
 2265              		.file 34 "c:\\program files\\daisytoolchain\\arm-none-eabi\\include\\c++\\10.2.1\\bits\\basic_stri
 2266              		.file 35 "c:\\program files\\daisytoolchain\\arm-none-eabi\\include\\c++\\10.2.1\\bits\\charconv.h
 2267              		.file 36 "c:\\program files\\daisytoolchain\\arm-none-eabi\\include\\c++\\10.2.1\\bits\\algorithmf
 2268              		.file 37 "c:\\program files\\daisytoolchain\\arm-none-eabi\\include\\c++\\10.2.1\\cstring"
 2269              		.file 38 "c:\\program files\\daisytoolchain\\arm-none-eabi\\include\\c++\\10.2.1\\cstdarg"
 2270              		.file 39 "c:\\program files\\daisytoolchain\\arm-none-eabi\\include\\c++\\10.2.1\\bits\\predefined
 2271              		.file 40 "c:\\program files\\daisytoolchain\\arm-none-eabi\\include\\sys\\_types.h"
 2272              		.file 41 "c:\\program files\\daisytoolchain\\arm-none-eabi\\include\\sys\\reent.h"
 2273              		.file 42 "c:\\program files\\daisytoolchain\\arm-none-eabi\\include\\sys\\lock.h"
 2274              		.file 43 "c:\\program files\\daisytoolchain\\arm-none-eabi\\include\\math.h"
 2275              		.file 44 "c:\\program files\\daisytoolchain\\arm-none-eabi\\include\\stdlib.h"
 2276              		.file 45 "c:\\program files\\daisytoolchain\\arm-none-eabi\\include\\c++\\10.2.1\\math.h"
 2277              		.file 46 "../../DaisySP//Source/Control/adenv.h"
 2278              		.file 47 "../../DaisySP//Source/Utility/dsp.h"
 2279              		.file 48 "c:\\program files\\daisytoolchain\\lib\\gcc\\arm-none-eabi\\10.2.1\\include\\stdarg.h"
 2280              		.file 49 "c:\\program files\\daisytoolchain\\arm-none-eabi\\include\\wchar.h"
 2281              		.file 50 "c:\\program files\\daisytoolchain\\arm-none-eabi\\include\\locale.h"
 2282              		.file 51 "c:\\program files\\daisytoolchain\\arm-none-eabi\\include\\stdio.h"
 2283              		.file 52 "c:\\program files\\daisytoolchain\\arm-none-eabi\\include\\c++\\10.2.1\\stdlib.h"
 2284              		.file 53 "c:\\program files\\daisytoolchain\\arm-none-eabi\\include\\string.h"
 2285              		.file 54 "../../libDaisy//src/per/tim.h"
 2286              		.file 55 "../../libDaisy//src/util/wav_format.h"
 2287              		.file 56 "../../libDaisy//src/dev/max11300.h"
 2288              		.file 57 "../../libDaisy//src/dev/sdram.h"
 2289              		.file 58 "../../libDaisy//src/dev/sr_595.h"
 2290              		.file 59 "<built-in>"
ARM GAS  C:\Users\kgpol\AppData\Local\Temp\cc4o6iZe.s 			page 76


DEFINED SYMBOLS
                            *ABS*:00000000 delay-module.cpp
C:\Users\kgpol\AppData\Local\Temp\cc4o6iZe.s:17     .text._ZN7daisysp9CrossFadeD2Ev:00000000 $t
C:\Users\kgpol\AppData\Local\Temp\cc4o6iZe.s:26     .text._ZN7daisysp9CrossFadeD2Ev:00000000 _ZN7daisysp9CrossFadeD2Ev
C:\Users\kgpol\AppData\Local\Temp\cc4o6iZe.s:26     .text._ZN7daisysp9CrossFadeD2Ev:00000000 _ZN7daisysp9CrossFadeD1Ev
C:\Users\kgpol\AppData\Local\Temp\cc4o6iZe.s:43     .text._ZN5daisy6SwitchD2Ev:00000000 $t
C:\Users\kgpol\AppData\Local\Temp\cc4o6iZe.s:51     .text._ZN5daisy6SwitchD2Ev:00000000 _ZN5daisy6SwitchD2Ev
C:\Users\kgpol\AppData\Local\Temp\cc4o6iZe.s:51     .text._ZN5daisy6SwitchD2Ev:00000000 _ZN5daisy6SwitchD1Ev
C:\Users\kgpol\AppData\Local\Temp\cc4o6iZe.s:68     .text._ZN5daisy13AnalogControlD2Ev:00000000 $t
C:\Users\kgpol\AppData\Local\Temp\cc4o6iZe.s:76     .text._ZN5daisy13AnalogControlD2Ev:00000000 _ZN5daisy13AnalogControlD2Ev
C:\Users\kgpol\AppData\Local\Temp\cc4o6iZe.s:76     .text._ZN5daisy13AnalogControlD2Ev:00000000 _ZN5daisy13AnalogControlD1Ev
C:\Users\kgpol\AppData\Local\Temp\cc4o6iZe.s:93     .text._ZN5daisy6GateInD2Ev:00000000 $t
C:\Users\kgpol\AppData\Local\Temp\cc4o6iZe.s:101    .text._ZN5daisy6GateInD2Ev:00000000 _ZN5daisy6GateInD2Ev
C:\Users\kgpol\AppData\Local\Temp\cc4o6iZe.s:101    .text._ZN5daisy6GateInD2Ev:00000000 _ZN5daisy6GateInD1Ev
C:\Users\kgpol\AppData\Local\Temp\cc4o6iZe.s:118    .text._ZN5daisy3LedD2Ev:00000000 $t
C:\Users\kgpol\AppData\Local\Temp\cc4o6iZe.s:126    .text._ZN5daisy3LedD2Ev:00000000 _ZN5daisy3LedD2Ev
C:\Users\kgpol\AppData\Local\Temp\cc4o6iZe.s:126    .text._ZN5daisy3LedD2Ev:00000000 _ZN5daisy3LedD1Ev
C:\Users\kgpol\AppData\Local\Temp\cc4o6iZe.s:143    .text._ZN5daisy9DaisySeedD2Ev:00000000 $t
C:\Users\kgpol\AppData\Local\Temp\cc4o6iZe.s:151    .text._ZN5daisy9DaisySeedD2Ev:00000000 _ZN5daisy9DaisySeedD2Ev
C:\Users\kgpol\AppData\Local\Temp\cc4o6iZe.s:151    .text._ZN5daisy9DaisySeedD2Ev:00000000 _ZN5daisy9DaisySeedD1Ev
C:\Users\kgpol\AppData\Local\Temp\cc4o6iZe.s:192    .text._ZN7daisysp9DelayLineIfLj960000EED2Ev:00000000 $t
C:\Users\kgpol\AppData\Local\Temp\cc4o6iZe.s:200    .text._ZN7daisysp9DelayLineIfLj960000EED2Ev:00000000 _ZN7daisysp9DelayLineIfLj960000EED2Ev
C:\Users\kgpol\AppData\Local\Temp\cc4o6iZe.s:200    .text._ZN7daisysp9DelayLineIfLj960000EED2Ev:00000000 _ZN7daisysp9DelayLineIfLj960000EED1Ev
C:\Users\kgpol\AppData\Local\Temp\cc4o6iZe.s:217    .text._ZL13AudioCallbackPKfPfj:00000000 $t
C:\Users\kgpol\AppData\Local\Temp\cc4o6iZe.s:224    .text._ZL13AudioCallbackPKfPfj:00000000 _ZL13AudioCallbackPKfPfj
C:\Users\kgpol\AppData\Local\Temp\cc4o6iZe.s:800    .text._ZL13AudioCallbackPKfPfj:000001c4 $d
C:\Users\kgpol\AppData\Local\Temp\cc4o6iZe.s:2245   .sdram_bss:003a980c _ZL7delay_l
C:\Users\kgpol\AppData\Local\Temp\cc4o6iZe.s:2241   .sdram_bss:00000000 _ZL7delay_r
C:\Users\kgpol\AppData\Local\Temp\cc4o6iZe.s:815    .text.startup.main:00000000 $t
C:\Users\kgpol\AppData\Local\Temp\cc4o6iZe.s:823    .text.startup.main:00000000 main
C:\Users\kgpol\AppData\Local\Temp\cc4o6iZe.s:1406   .text.startup.main:0000028e $d
C:\Users\kgpol\AppData\Local\Temp\cc4o6iZe.s:1410   .text.startup.main:00000292 $t
C:\Users\kgpol\AppData\Local\Temp\cc4o6iZe.s:1487   .text.startup.main:000002dc $d
C:\Users\kgpol\AppData\Local\Temp\cc4o6iZe.s:1523   .text.startup.main:00000350 $t
C:\Users\kgpol\AppData\Local\Temp\cc4o6iZe.s:1659   .text.startup.main:000003c8 $d
C:\Users\kgpol\AppData\Local\Temp\cc4o6iZe.s:1670   .text.startup._GLOBAL__sub_I_clock_sync:00000000 $t
C:\Users\kgpol\AppData\Local\Temp\cc4o6iZe.s:1677   .text.startup._GLOBAL__sub_I_clock_sync:00000000 _GLOBAL__sub_I_clock_sync
C:\Users\kgpol\AppData\Local\Temp\cc4o6iZe.s:2076   .text.startup._GLOBAL__sub_I_clock_sync:000000cc $d
C:\Users\kgpol\AppData\Local\Temp\cc4o6iZe.s:2106   .init_array:00000000 $d
C:\Users\kgpol\AppData\Local\Temp\cc4o6iZe.s:2219   .bss.time_range:00000000 time_range
C:\Users\kgpol\AppData\Local\Temp\cc4o6iZe.s:2212   .bss.clock_sync:00000000 clock_sync
C:\Users\kgpol\AppData\Local\Temp\cc4o6iZe.s:2111   .bss._ZL11cross_fader:00000000 $d
C:\Users\kgpol\AppData\Local\Temp\cc4o6iZe.s:2115   .bss._ZL11cross_fader:00000000 _ZL11cross_fader
C:\Users\kgpol\AppData\Local\Temp\cc4o6iZe.s:2118   .bss._ZL2hw:00000000 $d
C:\Users\kgpol\AppData\Local\Temp\cc4o6iZe.s:2122   .bss._ZL2hw:00000000 _ZL2hw
C:\Users\kgpol\AppData\Local\Temp\cc4o6iZe.s:2125   .bss._ZL4cv_0:00000000 $d
C:\Users\kgpol\AppData\Local\Temp\cc4o6iZe.s:2129   .bss._ZL4cv_0:00000000 _ZL4cv_0
C:\Users\kgpol\AppData\Local\Temp\cc4o6iZe.s:2132   .bss._ZL4cv_1:00000000 $d
C:\Users\kgpol\AppData\Local\Temp\cc4o6iZe.s:2136   .bss._ZL4cv_1:00000000 _ZL4cv_1
C:\Users\kgpol\AppData\Local\Temp\cc4o6iZe.s:2139   .bss._ZL4cv_2:00000000 $d
C:\Users\kgpol\AppData\Local\Temp\cc4o6iZe.s:2143   .bss._ZL4cv_2:00000000 _ZL4cv_2
C:\Users\kgpol\AppData\Local\Temp\cc4o6iZe.s:2146   .bss._ZL4cv_3:00000000 $d
C:\Users\kgpol\AppData\Local\Temp\cc4o6iZe.s:2150   .bss._ZL4cv_3:00000000 _ZL4cv_3
C:\Users\kgpol\AppData\Local\Temp\cc4o6iZe.s:2153   .bss._ZL4hold:00000000 $d
C:\Users\kgpol\AppData\Local\Temp\cc4o6iZe.s:2157   .bss._ZL4hold:00000000 _ZL4hold
C:\Users\kgpol\AppData\Local\Temp\cc4o6iZe.s:2160   .bss._ZL5clock:00000000 $d
C:\Users\kgpol\AppData\Local\Temp\cc4o6iZe.s:2164   .bss._ZL5clock:00000000 _ZL5clock
ARM GAS  C:\Users\kgpol\AppData\Local\Temp\cc4o6iZe.s 			page 77


C:\Users\kgpol\AppData\Local\Temp\cc4o6iZe.s:2167   .bss._ZL7led_1_b:00000000 $d
C:\Users\kgpol\AppData\Local\Temp\cc4o6iZe.s:2171   .bss._ZL7led_1_b:00000000 _ZL7led_1_b
C:\Users\kgpol\AppData\Local\Temp\cc4o6iZe.s:2174   .bss._ZL7led_1_r:00000000 $d
C:\Users\kgpol\AppData\Local\Temp\cc4o6iZe.s:2178   .bss._ZL7led_1_r:00000000 _ZL7led_1_r
C:\Users\kgpol\AppData\Local\Temp\cc4o6iZe.s:2181   .bss._ZL7led_2_b:00000000 $d
C:\Users\kgpol\AppData\Local\Temp\cc4o6iZe.s:2185   .bss._ZL7led_2_b:00000000 _ZL7led_2_b
C:\Users\kgpol\AppData\Local\Temp\cc4o6iZe.s:2188   .bss._ZL7led_2_r:00000000 $d
C:\Users\kgpol\AppData\Local\Temp\cc4o6iZe.s:2192   .bss._ZL7led_2_r:00000000 _ZL7led_2_r
C:\Users\kgpol\AppData\Local\Temp\cc4o6iZe.s:2195   .bss._ZL8switch_1:00000000 $d
C:\Users\kgpol\AppData\Local\Temp\cc4o6iZe.s:2199   .bss._ZL8switch_1:00000000 _ZL8switch_1
C:\Users\kgpol\AppData\Local\Temp\cc4o6iZe.s:2202   .bss._ZL8switch_2:00000000 $d
C:\Users\kgpol\AppData\Local\Temp\cc4o6iZe.s:2206   .bss._ZL8switch_2:00000000 _ZL8switch_2
C:\Users\kgpol\AppData\Local\Temp\cc4o6iZe.s:2213   .bss.clock_sync:00000000 $d
C:\Users\kgpol\AppData\Local\Temp\cc4o6iZe.s:2215   .bss.time_range:00000000 $d
C:\Users\kgpol\AppData\Local\Temp\cc4o6iZe.s:2222   .rodata._ZN5daisy4seedL3D26E:00000000 $d
C:\Users\kgpol\AppData\Local\Temp\cc4o6iZe.s:2226   .rodata._ZN5daisy4seedL3D26E:00000000 _ZN5daisy4seedL3D26E
C:\Users\kgpol\AppData\Local\Temp\cc4o6iZe.s:2230   .rodata._ZN5daisy4seedL3D27E:00000000 $d
C:\Users\kgpol\AppData\Local\Temp\cc4o6iZe.s:2234   .rodata._ZN5daisy4seedL3D27E:00000000 _ZN5daisy4seedL3D27E
C:\Users\kgpol\AppData\Local\Temp\cc4o6iZe.s:2238   .sdram_bss:00000000 $d
                           .group:00000000 _ZN7daisysp9CrossFadeD5Ev
                           .group:00000000 _ZN5daisy6SwitchD5Ev
                           .group:00000000 _ZN5daisy13AnalogControlD5Ev
                           .group:00000000 _ZN5daisy6GateInD5Ev
                           .group:00000000 _ZN5daisy3LedD5Ev
                           .group:00000000 _ZN5daisy9DaisySeedD5Ev
                           .group:00000000 _ZN7daisysp9DelayLineIfLj960000EED5Ev

UNDEFINED SYMBOLS
_ZN5daisy13AnalogControl7ProcessEv
_ZN7daisysp9CrossFade7ProcessERfS1_
_ZN5daisy9DaisySeed9ConfigureEv
_ZN5daisy9DaisySeed4InitEb
_ZN5daisy9DaisySeed18SetAudioSampleRateENS_9SaiHandle6Config10SampleRateE
_ZN5daisy9DaisySeed17SetAudioBlockSizeEj
_ZN5daisy9DaisySeed15AudioSampleRateEv
_ZN5daisy16AdcChannelConfig10InitSingleE12dsy_gpio_pinNS0_15ConversionSpeedE
_ZN5daisy9AdcHandle4InitEPNS_16AdcChannelConfigEjNS0_12OverSamplingE
_ZN5daisy9AdcHandle5StartEv
_ZNK5daisy9AdcHandle6GetPtrEh
_ZN5daisy13AnalogControl4InitEPtfbbf
_ZN5daisy9DacHandle4InitERKNS0_6ConfigE
_ZN5daisy9DacHandle10WriteValueENS0_7ChannelEt
_ZN5daisy6GateIn4InitENS_3PinEb
_ZN5daisy6Switch4InitE12dsy_gpio_pinf
_ZN5daisy3Led4InitE12dsy_gpio_pinbf
memset
_ZN5daisy9DaisySeed10StartAudioEPFvPKfPfjE
_ZN5daisy6Switch8DebounceEv
_ZN5daisy4GPIO4ReadEv
_ZN5daisy3Led3SetEf
_ZN5daisy3Led6UpdateEv
__aeabi_atexit
__dso_handle
