ARM GAS  C:\Users\kgpol\AppData\Local\Temp\ccMDpFSR.s 			page 1


   1              		.cpu cortex-m7
   2              		.eabi_attribute 28, 1
   3              		.eabi_attribute 20, 1
   4              		.eabi_attribute 21, 1
   5              		.eabi_attribute 23, 3
   6              		.eabi_attribute 24, 1
   7              		.eabi_attribute 25, 1
   8              		.eabi_attribute 26, 1
   9              		.eabi_attribute 30, 2
  10              		.eabi_attribute 34, 1
  11              		.eabi_attribute 18, 4
  12              		.file	"delay-module.cpp"
  13              		.text
  14              	.Ltext0:
  15              		.cfi_sections	.debug_frame
  16              		.section	.text._ZN5daisy13AnalogControlD2Ev,"axG",%progbits,_ZN5daisy13AnalogControlD5Ev,comdat
  17              		.align	1
  18              		.p2align 2,,3
  19              		.weak	_ZN5daisy13AnalogControlD2Ev
  20              		.arch armv7e-m
  21              		.syntax unified
  22              		.thumb
  23              		.thumb_func
  24              		.fpu fpv5-d16
  26              	_ZN5daisy13AnalogControlD2Ev:
  27              	.LVL0:
  28              	.LFB3798:
  29              		.file 1 "../../libDaisy//src/hid/ctrl.h"
   1:../../libDaisy//src/hid/ctrl.h **** #pragma once
   2:../../libDaisy//src/hid/ctrl.h **** #ifndef DSY_KNOB_H
   3:../../libDaisy//src/hid/ctrl.h **** #define DSY_KNOB_H /**< & */
   4:../../libDaisy//src/hid/ctrl.h **** #include <stdint.h>
   5:../../libDaisy//src/hid/ctrl.h **** 
   6:../../libDaisy//src/hid/ctrl.h **** #ifdef __cplusplus
   7:../../libDaisy//src/hid/ctrl.h **** namespace daisy
   8:../../libDaisy//src/hid/ctrl.h **** {
   9:../../libDaisy//src/hid/ctrl.h **** /**
  10:../../libDaisy//src/hid/ctrl.h ****     @brief Hardware Interface for control inputs \n 
  11:../../libDaisy//src/hid/ctrl.h ****     Primarily designed for ADC input controls such as \n 
  12:../../libDaisy//src/hid/ctrl.h ****     potentiometers, and control voltage. \n 
  13:../../libDaisy//src/hid/ctrl.h ****     @author Stephen Hensley
  14:../../libDaisy//src/hid/ctrl.h ****     @date November 2019
  15:../../libDaisy//src/hid/ctrl.h ****     @ingroup controls
  16:../../libDaisy//src/hid/ctrl.h **** */
  17:../../libDaisy//src/hid/ctrl.h **** class AnalogControl
  18:../../libDaisy//src/hid/ctrl.h **** {
  19:../../libDaisy//src/hid/ctrl.h ****   public:
  20:../../libDaisy//src/hid/ctrl.h ****     /** Constructor */
  21:../../libDaisy//src/hid/ctrl.h ****     AnalogControl() {}
  22:../../libDaisy//src/hid/ctrl.h ****     /** destructor */
  23:../../libDaisy//src/hid/ctrl.h ****     ~AnalogControl() {}
  30              		.loc 1 23 5 view -0
  31              		.cfi_startproc
  32              		@ args = 0, pretend = 0, frame = 0
  33              		@ frame_needed = 0, uses_anonymous_args = 0
  34              		@ link register save eliminated.
  35              		.loc 1 23 23 is_stmt 0 view .LVU1
ARM GAS  C:\Users\kgpol\AppData\Local\Temp\ccMDpFSR.s 			page 2


  36 0000 7047     		bx	lr
  37              		.cfi_endproc
  38              	.LFE3798:
  40              		.weak	_ZN5daisy13AnalogControlD1Ev
  41              		.thumb_set _ZN5daisy13AnalogControlD1Ev,_ZN5daisy13AnalogControlD2Ev
  42 0002 00BF     		.section	.text._ZN5daisy9DaisySeedD2Ev,"axG",%progbits,_ZN5daisy9DaisySeedD5Ev,comdat
  43              		.align	1
  44              		.p2align 2,,3
  45              		.weak	_ZN5daisy9DaisySeedD2Ev
  46              		.syntax unified
  47              		.thumb
  48              		.thumb_func
  49              		.fpu fpv5-d16
  51              	_ZN5daisy9DaisySeedD2Ev:
  52              	.LVL1:
  53              	.LFB4676:
  54              		.file 2 "../../libDaisy//src/daisy_seed.h"
   1:../../libDaisy//src/daisy_seed.h **** #pragma once
   2:../../libDaisy//src/daisy_seed.h **** #ifndef DSY_SEED_H
   3:../../libDaisy//src/daisy_seed.h **** #define DSY_SEED_H
   4:../../libDaisy//src/daisy_seed.h **** 
   5:../../libDaisy//src/daisy_seed.h **** #include "daisy.h"
   6:../../libDaisy//src/daisy_seed.h **** 
   7:../../libDaisy//src/daisy_seed.h **** //Uncomment this out if you're still using the rev2 hardware
   8:../../libDaisy//src/daisy_seed.h **** //#define SEED_REV2
   9:../../libDaisy//src/daisy_seed.h **** 
  10:../../libDaisy//src/daisy_seed.h **** namespace daisy
  11:../../libDaisy//src/daisy_seed.h **** {
  12:../../libDaisy//src/daisy_seed.h **** /**
  13:../../libDaisy//src/daisy_seed.h ****    @brief This is the higher-level interface for the Daisy board. \n 
  14:../../libDaisy//src/daisy_seed.h ****     All basic peripheral configuration/initialization is setup here. \n
  15:../../libDaisy//src/daisy_seed.h **** 
  16:../../libDaisy//src/daisy_seed.h ****    @ingroup boards
  17:../../libDaisy//src/daisy_seed.h **** */
  18:../../libDaisy//src/daisy_seed.h **** class DaisySeed
  19:../../libDaisy//src/daisy_seed.h **** {
  20:../../libDaisy//src/daisy_seed.h ****   public:
  21:../../libDaisy//src/daisy_seed.h ****     DaisySeed() {}
  22:../../libDaisy//src/daisy_seed.h ****     ~DaisySeed() {}
  55              		.loc 2 22 5 is_stmt 1 view -0
  56              		.cfi_startproc
  57              		@ args = 0, pretend = 0, frame = 0
  58              		@ frame_needed = 0, uses_anonymous_args = 0
  59              		@ link register save eliminated.
  60              	.LBB121:
  61              	.LBI121:
  62              		.file 3 "../../libDaisy//src/sys/system.h"
   1:../../libDaisy//src/sys/system.h **** #ifndef DSY_SYSTEM_H
   2:../../libDaisy//src/sys/system.h **** #define DSY_SYSTEM_H
   3:../../libDaisy//src/sys/system.h **** 
   4:../../libDaisy//src/sys/system.h **** #ifndef UNIT_TEST // for unit tests, a dummy implementation is provided below
   5:../../libDaisy//src/sys/system.h **** 
   6:../../libDaisy//src/sys/system.h **** #include <cstdint>
   7:../../libDaisy//src/sys/system.h **** #include "per/tim.h"
   8:../../libDaisy//src/sys/system.h **** 
   9:../../libDaisy//src/sys/system.h **** namespace daisy
  10:../../libDaisy//src/sys/system.h **** {
ARM GAS  C:\Users\kgpol\AppData\Local\Temp\ccMDpFSR.s 			page 3


  11:../../libDaisy//src/sys/system.h **** /** A handle for interacting with the Core System.
  12:../../libDaisy//src/sys/system.h ****  ** This includes the Clock tree, MPU, global DMA initialization,
  13:../../libDaisy//src/sys/system.h ****  ** cache handling, and any other necessary global initiailzation
  14:../../libDaisy//src/sys/system.h ****  **
  15:../../libDaisy//src/sys/system.h ****  ** @author shensley
  16:../../libDaisy//src/sys/system.h ****  ** @ingroup system
  17:../../libDaisy//src/sys/system.h ****  */
  18:../../libDaisy//src/sys/system.h **** class System
  19:../../libDaisy//src/sys/system.h **** {
  20:../../libDaisy//src/sys/system.h ****   public:
  21:../../libDaisy//src/sys/system.h ****     /** Contains settings for initializing the System */
  22:../../libDaisy//src/sys/system.h ****     struct Config
  23:../../libDaisy//src/sys/system.h ****     {
  24:../../libDaisy//src/sys/system.h ****         /** Specifies the system clock frequency that feeds APB/AHB clocks, etc. */
  25:../../libDaisy//src/sys/system.h ****         enum class SysClkFreq
  26:../../libDaisy//src/sys/system.h ****         {
  27:../../libDaisy//src/sys/system.h ****             FREQ_400MHZ,
  28:../../libDaisy//src/sys/system.h ****             FREQ_480MHZ,
  29:../../libDaisy//src/sys/system.h ****         };
  30:../../libDaisy//src/sys/system.h **** 
  31:../../libDaisy//src/sys/system.h ****         /** Method to call on the struct to set to defaults
  32:../../libDaisy//src/sys/system.h ****          ** CPU Freq set to 400MHz
  33:../../libDaisy//src/sys/system.h ****          ** Cache Enabled
  34:../../libDaisy//src/sys/system.h ****          ** */
  35:../../libDaisy//src/sys/system.h ****         void Defaults()
  36:../../libDaisy//src/sys/system.h ****         {
  37:../../libDaisy//src/sys/system.h ****             cpu_freq    = SysClkFreq::FREQ_400MHZ;
  38:../../libDaisy//src/sys/system.h ****             use_dcache  = true;
  39:../../libDaisy//src/sys/system.h ****             use_icache  = true;
  40:../../libDaisy//src/sys/system.h ****             skip_clocks = false;
  41:../../libDaisy//src/sys/system.h ****         }
  42:../../libDaisy//src/sys/system.h **** 
  43:../../libDaisy//src/sys/system.h ****         /** Method to call on the struct to set to boost mode:
  44:../../libDaisy//src/sys/system.h ****          ** CPU Freq set to 480MHz
  45:../../libDaisy//src/sys/system.h ****          ** Cache Enabled
  46:../../libDaisy//src/sys/system.h ****          ** */
  47:../../libDaisy//src/sys/system.h ****         void Boost()
  48:../../libDaisy//src/sys/system.h ****         {
  49:../../libDaisy//src/sys/system.h ****             cpu_freq    = SysClkFreq::FREQ_480MHZ;
  50:../../libDaisy//src/sys/system.h ****             use_dcache  = true;
  51:../../libDaisy//src/sys/system.h ****             use_icache  = true;
  52:../../libDaisy//src/sys/system.h ****             skip_clocks = false;
  53:../../libDaisy//src/sys/system.h ****         }
  54:../../libDaisy//src/sys/system.h **** 
  55:../../libDaisy//src/sys/system.h ****         SysClkFreq cpu_freq;
  56:../../libDaisy//src/sys/system.h ****         bool       use_dcache;
  57:../../libDaisy//src/sys/system.h ****         bool       use_icache;
  58:../../libDaisy//src/sys/system.h ****         bool       skip_clocks;
  59:../../libDaisy//src/sys/system.h ****     };
  60:../../libDaisy//src/sys/system.h **** 
  61:../../libDaisy//src/sys/system.h ****     /** Describes the different regions of memory available to the Daisy */
  62:../../libDaisy//src/sys/system.h ****     enum MemoryRegion
  63:../../libDaisy//src/sys/system.h ****     {
  64:../../libDaisy//src/sys/system.h ****         INTERNAL_FLASH = 0,
  65:../../libDaisy//src/sys/system.h ****         ITCMRAM,
  66:../../libDaisy//src/sys/system.h ****         DTCMRAM,
  67:../../libDaisy//src/sys/system.h ****         SRAM_D1,
ARM GAS  C:\Users\kgpol\AppData\Local\Temp\ccMDpFSR.s 			page 4


  68:../../libDaisy//src/sys/system.h ****         SRAM_D2,
  69:../../libDaisy//src/sys/system.h ****         SRAM_D3,
  70:../../libDaisy//src/sys/system.h ****         SDRAM,
  71:../../libDaisy//src/sys/system.h ****         QSPI,
  72:../../libDaisy//src/sys/system.h ****         INVALID_ADDRESS,
  73:../../libDaisy//src/sys/system.h ****     };
  74:../../libDaisy//src/sys/system.h **** 
  75:../../libDaisy//src/sys/system.h ****     /** Bootloader struct for controlling bootloading parameters */
  76:../../libDaisy//src/sys/system.h ****     struct BootInfo
  77:../../libDaisy//src/sys/system.h ****     {
  78:../../libDaisy//src/sys/system.h ****         enum class Type : uint32_t
  79:../../libDaisy//src/sys/system.h ****         {
  80:../../libDaisy//src/sys/system.h ****             INVALID      = 0x00000000,
  81:../../libDaisy//src/sys/system.h ****             JUMP         = 0xDEADBEEF,
  82:../../libDaisy//src/sys/system.h ****             SKIP_TIMEOUT = 0x5AFEB007,
  83:../../libDaisy//src/sys/system.h ****             INF_TIMEOUT  = 0xB0074EFA,
  84:../../libDaisy//src/sys/system.h ****         } status;
  85:../../libDaisy//src/sys/system.h ****         uint32_t data;
  86:../../libDaisy//src/sys/system.h ****         enum class Version : uint32_t
  87:../../libDaisy//src/sys/system.h ****         {
  88:../../libDaisy//src/sys/system.h ****             LT_v6_0 = 0, // Less than v6.0
  89:../../libDaisy//src/sys/system.h ****             NONE,        // No bootloader present
  90:../../libDaisy//src/sys/system.h ****             v6_0,        // v6.0
  91:../../libDaisy//src/sys/system.h ****             v6_1,        // v6.1 or greater
  92:../../libDaisy//src/sys/system.h ****             LAST
  93:../../libDaisy//src/sys/system.h ****         } version;
  94:../../libDaisy//src/sys/system.h ****     };
  95:../../libDaisy//src/sys/system.h **** 
  96:../../libDaisy//src/sys/system.h ****     System() {}
  97:../../libDaisy//src/sys/system.h ****     ~System() {}
  63              		.loc 3 97 5 view .LVU3
  64              		.loc 3 97 5 is_stmt 0 view .LVU4
  65              	.LBE121:
  66              	.LBB122:
  67              	.LBI122:
  68              		.file 4 "../../libDaisy//src/hid/usb.h"
   1:../../libDaisy//src/hid/usb.h **** #pragma once
   2:../../libDaisy//src/hid/usb.h **** #ifndef DSY_HID_USB_H
   3:../../libDaisy//src/hid/usb.h **** #define DSY_HID_USB_H
   4:../../libDaisy//src/hid/usb.h **** #include <stdint.h>
   5:../../libDaisy//src/hid/usb.h **** #include <stdlib.h>
   6:../../libDaisy//src/hid/usb.h **** 
   7:../../libDaisy//src/hid/usb.h **** namespace daisy
   8:../../libDaisy//src/hid/usb.h **** /** @addtogroup human_interface
   9:../../libDaisy//src/hid/usb.h ****     @{
  10:../../libDaisy//src/hid/usb.h **** */
  11:../../libDaisy//src/hid/usb.h **** 
  12:../../libDaisy//src/hid/usb.h **** {
  13:../../libDaisy//src/hid/usb.h **** /** 
  14:../../libDaisy//src/hid/usb.h ****     @brief Interface for initializing and using the USB Peripherals on the daisy
  15:../../libDaisy//src/hid/usb.h ****     @author Stephen Hensley
  16:../../libDaisy//src/hid/usb.h ****     @date December 2019
  17:../../libDaisy//src/hid/usb.h **** */
  18:../../libDaisy//src/hid/usb.h **** class UsbHandle
  19:../../libDaisy//src/hid/usb.h **** {
  20:../../libDaisy//src/hid/usb.h ****   public:
  21:../../libDaisy//src/hid/usb.h ****     /** Return values for USBHandle Functions */
ARM GAS  C:\Users\kgpol\AppData\Local\Temp\ccMDpFSR.s 			page 5


  22:../../libDaisy//src/hid/usb.h ****     enum class Result
  23:../../libDaisy//src/hid/usb.h ****     {
  24:../../libDaisy//src/hid/usb.h ****         OK,
  25:../../libDaisy//src/hid/usb.h ****         ERR,
  26:../../libDaisy//src/hid/usb.h ****     };
  27:../../libDaisy//src/hid/usb.h **** 
  28:../../libDaisy//src/hid/usb.h ****     /** Specified which of the two USB Peripherals to initialize. */
  29:../../libDaisy//src/hid/usb.h ****     enum UsbPeriph
  30:../../libDaisy//src/hid/usb.h ****     {
  31:../../libDaisy//src/hid/usb.h ****         FS_INTERNAL, /**< Internal pin */
  32:../../libDaisy//src/hid/usb.h ****         FS_EXTERNAL, /**< FS External D+ pin is Pin 38 (GPIO32). FS External D- pin is Pin 37 (GPIO
  33:../../libDaisy//src/hid/usb.h ****         FS_BOTH,     /**< Both */
  34:../../libDaisy//src/hid/usb.h ****     };
  35:../../libDaisy//src/hid/usb.h **** 
  36:../../libDaisy//src/hid/usb.h **** 
  37:../../libDaisy//src/hid/usb.h ****     /** Function called upon reception of a buffer */
  38:../../libDaisy//src/hid/usb.h ****     typedef void (*ReceiveCallback)(uint8_t* buff, uint32_t* len);
  39:../../libDaisy//src/hid/usb.h **** 
  40:../../libDaisy//src/hid/usb.h ****     UsbHandle() {}
  41:../../libDaisy//src/hid/usb.h **** 
  42:../../libDaisy//src/hid/usb.h ****     ~UsbHandle() {}
  69              		.loc 4 42 5 is_stmt 1 view .LVU5
  70              		.loc 4 42 5 is_stmt 0 view .LVU6
  71              	.LBE122:
  72              	.LBB123:
  73              	.LBI123:
  74              		.file 5 "../../libDaisy//src/per/adc.h"
   1:../../libDaisy//src/per/adc.h **** #pragma once
   2:../../libDaisy//src/per/adc.h **** #ifndef DSY_ADC_H
   3:../../libDaisy//src/per/adc.h **** #define DSY_ADC_H /**< Macro */
   4:../../libDaisy//src/per/adc.h **** #include <stdint.h>
   5:../../libDaisy//src/per/adc.h **** #include <stdlib.h>
   6:../../libDaisy//src/per/adc.h **** #include "daisy_core.h"
   7:../../libDaisy//src/per/adc.h **** #include "per/gpio.h"
   8:../../libDaisy//src/per/adc.h **** 
   9:../../libDaisy//src/per/adc.h **** #define DSY_ADC_MAX_CHANNELS 16 /**< Maximum number of ADC channels */
  10:../../libDaisy//src/per/adc.h **** 
  11:../../libDaisy//src/per/adc.h **** namespace daisy
  12:../../libDaisy//src/per/adc.h **** {
  13:../../libDaisy//src/per/adc.h **** /** @addtogroup per_analog
  14:../../libDaisy//src/per/adc.h ****     @{
  15:../../libDaisy//src/per/adc.h **** */
  16:../../libDaisy//src/per/adc.h **** 
  17:../../libDaisy//src/per/adc.h **** /* While there may not be many configuration options here,
  18:../../libDaisy//src/per/adc.h **** using a struct like this allows us to add more configuration
  19:../../libDaisy//src/per/adc.h **** later without breaking existing functionality.
  20:../../libDaisy//src/per/adc.h **** */
  21:../../libDaisy//src/per/adc.h **** 
  22:../../libDaisy//src/per/adc.h **** /** @brief   Configuration Structure for an ADC Channel 
  23:../../libDaisy//src/per/adc.h ****  *  @details This can be used to configure a a single input, 
  24:../../libDaisy//src/per/adc.h ****  *           or a multiplexed input, allowing up to 8 inputs on 
  25:../../libDaisy//src/per/adc.h ****  *           one channel.
  26:../../libDaisy//src/per/adc.h ****  *  @note    Sharing data lines to multiple muxes _is_ possible, but
  27:../../libDaisy//src/per/adc.h ****  *           each channel sharing data lines must be set to the maximum
  28:../../libDaisy//src/per/adc.h ****  *           number of channels, even if some multiplexers have fewer
  29:../../libDaisy//src/per/adc.h ****  *           inputs connected.
  30:../../libDaisy//src/per/adc.h **** */
ARM GAS  C:\Users\kgpol\AppData\Local\Temp\ccMDpFSR.s 			page 6


  31:../../libDaisy//src/per/adc.h **** struct AdcChannelConfig
  32:../../libDaisy//src/per/adc.h **** {
  33:../../libDaisy//src/per/adc.h ****     /** Which pin to use for multiplexing */
  34:../../libDaisy//src/per/adc.h ****     enum MuxPin
  35:../../libDaisy//src/per/adc.h ****     {
  36:../../libDaisy//src/per/adc.h ****         MUX_SEL_0,    /**< & */
  37:../../libDaisy//src/per/adc.h ****         MUX_SEL_1,    /**< & */
  38:../../libDaisy//src/per/adc.h ****         MUX_SEL_2,    /**< & */
  39:../../libDaisy//src/per/adc.h ****         MUX_SEL_LAST, /**< & */
  40:../../libDaisy//src/per/adc.h ****     };
  41:../../libDaisy//src/per/adc.h **** 
  42:../../libDaisy//src/per/adc.h ****     /** \brief per channel conversion speed added to fixed time based on bitdepth, etc. */
  43:../../libDaisy//src/per/adc.h ****     enum ConversionSpeed
  44:../../libDaisy//src/per/adc.h ****     {
  45:../../libDaisy//src/per/adc.h ****         SPEED_1CYCLES_5,
  46:../../libDaisy//src/per/adc.h ****         SPEED_2CYCLES_5,
  47:../../libDaisy//src/per/adc.h ****         SPEED_8CYCLES_5,
  48:../../libDaisy//src/per/adc.h ****         SPEED_16CYCLES_5,
  49:../../libDaisy//src/per/adc.h ****         SPEED_32CYCLES_5,
  50:../../libDaisy//src/per/adc.h ****         SPEED_64CYCLES_5,
  51:../../libDaisy//src/per/adc.h ****         SPEED_387CYCLES_5,
  52:../../libDaisy//src/per/adc.h ****         SPEED_810CYCLES_5,
  53:../../libDaisy//src/per/adc.h ****     };
  54:../../libDaisy//src/per/adc.h **** 
  55:../../libDaisy//src/per/adc.h ****     /** Initializes a single ADC pin as an ADC. 
  56:../../libDaisy//src/per/adc.h ****     \param pin Pin to init.
  57:../../libDaisy//src/per/adc.h ****     \param speed conversion speed for this pin defaults to 8.5 cycles
  58:../../libDaisy//src/per/adc.h ****      */
  59:../../libDaisy//src/per/adc.h ****     void InitSingle(dsy_gpio_pin pin, ConversionSpeed speed = SPEED_8CYCLES_5);
  60:../../libDaisy//src/per/adc.h **** 
  61:../../libDaisy//src/per/adc.h ****     /** 
  62:../../libDaisy//src/per/adc.h ****     Initializes a single ADC pin as a Multiplexed ADC.
  63:../../libDaisy//src/per/adc.h ****     Requires a CD405X Multiplexer connected to the pin.
  64:../../libDaisy//src/per/adc.h ****     You only need to supply the mux pins that are required,
  65:../../libDaisy//src/per/adc.h ****     e.g. a 4052 mux would only require mux_0 and mux_1.
  66:../../libDaisy//src/per/adc.h ****     Internal Callbacks handle the pin addressing.
  67:../../libDaisy//src/per/adc.h ****     \param adc_pin &
  68:../../libDaisy//src/per/adc.h ****     \param mux_channels must be 1-8
  69:../../libDaisy//src/per/adc.h ****     \param mux_0 First mux pin
  70:../../libDaisy//src/per/adc.h ****     \param mux_1 Second mux pin
  71:../../libDaisy//src/per/adc.h ****     \param mux_2 Third mux pin
  72:../../libDaisy//src/per/adc.h ****     \param speed conversion speed for this pin defaults to 8.5 cycles
  73:../../libDaisy//src/per/adc.h ****     */
  74:../../libDaisy//src/per/adc.h ****     void InitMux(dsy_gpio_pin    adc_pin,
  75:../../libDaisy//src/per/adc.h ****                  size_t          mux_channels,
  76:../../libDaisy//src/per/adc.h ****                  dsy_gpio_pin    mux_0,
  77:../../libDaisy//src/per/adc.h ****                  dsy_gpio_pin    mux_1 = {DSY_GPIOX, 0},
  78:../../libDaisy//src/per/adc.h ****                  dsy_gpio_pin    mux_2 = {DSY_GPIOX, 0},
  79:../../libDaisy//src/per/adc.h ****                  ConversionSpeed speed = SPEED_8CYCLES_5);
  80:../../libDaisy//src/per/adc.h **** 
  81:../../libDaisy//src/per/adc.h ****     dsy_gpio        pin_;                   /**< & */
  82:../../libDaisy//src/per/adc.h ****     dsy_gpio        mux_pin_[MUX_SEL_LAST]; /**< & */
  83:../../libDaisy//src/per/adc.h ****     uint8_t         mux_channels_;          /**< & */
  84:../../libDaisy//src/per/adc.h ****     ConversionSpeed speed_;
  85:../../libDaisy//src/per/adc.h **** };
  86:../../libDaisy//src/per/adc.h **** 
  87:../../libDaisy//src/per/adc.h **** /**
ARM GAS  C:\Users\kgpol\AppData\Local\Temp\ccMDpFSR.s 			page 7


  88:../../libDaisy//src/per/adc.h ****    @brief Handler for analog to digital conversion
  89:../../libDaisy//src/per/adc.h **** */
  90:../../libDaisy//src/per/adc.h **** class AdcHandle
  91:../../libDaisy//src/per/adc.h **** {
  92:../../libDaisy//src/per/adc.h ****   public:
  93:../../libDaisy//src/per/adc.h ****     /** Supported oversampling amounts */
  94:../../libDaisy//src/per/adc.h ****     enum OverSampling
  95:../../libDaisy//src/per/adc.h ****     {
  96:../../libDaisy//src/per/adc.h ****         OVS_NONE, /**< & */
  97:../../libDaisy//src/per/adc.h ****         OVS_4,    /**< & */
  98:../../libDaisy//src/per/adc.h ****         OVS_8,    /**< & */
  99:../../libDaisy//src/per/adc.h ****         OVS_16,   /**< & */
 100:../../libDaisy//src/per/adc.h ****         OVS_32,   /**< & */
 101:../../libDaisy//src/per/adc.h ****         OVS_64,   /**< & */
 102:../../libDaisy//src/per/adc.h ****         OVS_128,  /**< & */
 103:../../libDaisy//src/per/adc.h ****         OVS_256,  /**< & */
 104:../../libDaisy//src/per/adc.h ****         OVS_512,  /**< & */
 105:../../libDaisy//src/per/adc.h ****         OVS_1024, /**< & */
 106:../../libDaisy//src/per/adc.h ****         OVS_LAST, /**< & */
 107:../../libDaisy//src/per/adc.h ****     };
 108:../../libDaisy//src/per/adc.h **** 
 109:../../libDaisy//src/per/adc.h ****     AdcHandle() {}
 110:../../libDaisy//src/per/adc.h ****     ~AdcHandle() {}
  75              		.loc 5 110 5 is_stmt 1 view .LVU7
  76              		.loc 5 110 5 is_stmt 0 view .LVU8
  77              	.LBE123:
  78              	.LBB124:
  79              	.LBI124:
  80              		.file 6 "../../libDaisy//src/hid/audio.h"
   1:../../libDaisy//src/hid/audio.h **** #ifndef DSY_AUDIO_H
   2:../../libDaisy//src/hid/audio.h **** #define DSY_AUDIO_H /**< & */
   3:../../libDaisy//src/hid/audio.h **** 
   4:../../libDaisy//src/hid/audio.h **** #include "per/sai.h"
   5:../../libDaisy//src/hid/audio.h **** 
   6:../../libDaisy//src/hid/audio.h **** namespace daisy
   7:../../libDaisy//src/hid/audio.h **** {
   8:../../libDaisy//src/hid/audio.h **** /** @brief Audio Engine Handle
   9:../../libDaisy//src/hid/audio.h ****  *  @ingroup audio 
  10:../../libDaisy//src/hid/audio.h ****  *  @details This class allows for higher level access to an audio engine.
  11:../../libDaisy//src/hid/audio.h ****  *           If you're using a SOM like the DaisySeed or DaisyPatchSM (or any 
  12:../../libDaisy//src/hid/audio.h ****  *            board that includes one of those objects) then the intialization
  13:../../libDaisy//src/hid/audio.h ****  *            is already taken  care of.
  14:../../libDaisy//src/hid/audio.h ****  *           If you're setting up your own custom hardware, or need to make changes
  15:../../libDaisy//src/hid/audio.h ****  *           you will have to take the following steps:
  16:../../libDaisy//src/hid/audio.h ****  *             1. Create and Initialize an SaiHandle or two depending on your requirements
  17:../../libDaisy//src/hid/audio.h ****  *             2. Initialize the Audio Handle with the desired settings and the Initialized SaiHand
  18:../../libDaisy//src/hid/audio.h ****  *             3. If the connected codec requires special configuration or initialization, do so
  19:../../libDaisy//src/hid/audio.h ****  *             4. Write a callback method using either the AudioCallback or the InterleavingAudioCa
  20:../../libDaisy//src/hid/audio.h ****  *             5. Start the Audio using one of the StartAudio function
  21:../../libDaisy//src/hid/audio.h ****  */
  22:../../libDaisy//src/hid/audio.h **** class AudioHandle
  23:../../libDaisy//src/hid/audio.h **** {
  24:../../libDaisy//src/hid/audio.h ****   public:
  25:../../libDaisy//src/hid/audio.h ****     /** Manually configurable details about the Audio Engine */
  26:../../libDaisy//src/hid/audio.h ****     /** TODO: Figure out how to get samplerate in here. */
  27:../../libDaisy//src/hid/audio.h ****     struct Config
  28:../../libDaisy//src/hid/audio.h ****     {
ARM GAS  C:\Users\kgpol\AppData\Local\Temp\ccMDpFSR.s 			page 8


  29:../../libDaisy//src/hid/audio.h ****         /** number of samples to process per callback */
  30:../../libDaisy//src/hid/audio.h ****         size_t blocksize;
  31:../../libDaisy//src/hid/audio.h **** 
  32:../../libDaisy//src/hid/audio.h ****         /**< Sample rate of audio */
  33:../../libDaisy//src/hid/audio.h ****         SaiHandle::Config::SampleRate samplerate;
  34:../../libDaisy//src/hid/audio.h **** 
  35:../../libDaisy//src/hid/audio.h ****         /** factor for adjustment before and after callback for hardware that may have extra headro
  36:../../libDaisy//src/hid/audio.h ****         float postgain;
  37:../../libDaisy//src/hid/audio.h **** 
  38:../../libDaisy//src/hid/audio.h ****         /** factor for additional one-sided compensation to audio path for hardware that may
  39:../../libDaisy//src/hid/audio.h ****          *  have unequal input/output ranges
  40:../../libDaisy//src/hid/audio.h ****          */
  41:../../libDaisy//src/hid/audio.h ****         float output_compensation;
  42:../../libDaisy//src/hid/audio.h **** 
  43:../../libDaisy//src/hid/audio.h ****         /** Sets default values for config struct */
  44:../../libDaisy//src/hid/audio.h ****         Config()
  45:../../libDaisy//src/hid/audio.h ****         : blocksize(48),
  46:../../libDaisy//src/hid/audio.h ****           samplerate(SaiHandle::Config::SampleRate::SAI_48KHZ),
  47:../../libDaisy//src/hid/audio.h ****           postgain(1.f),
  48:../../libDaisy//src/hid/audio.h ****           output_compensation(1.f)
  49:../../libDaisy//src/hid/audio.h ****         {
  50:../../libDaisy//src/hid/audio.h ****         }
  51:../../libDaisy//src/hid/audio.h ****     };
  52:../../libDaisy//src/hid/audio.h **** 
  53:../../libDaisy//src/hid/audio.h ****     enum class Result
  54:../../libDaisy//src/hid/audio.h ****     {
  55:../../libDaisy//src/hid/audio.h ****         OK,
  56:../../libDaisy//src/hid/audio.h ****         ERR,
  57:../../libDaisy//src/hid/audio.h ****     };
  58:../../libDaisy//src/hid/audio.h **** 
  59:../../libDaisy//src/hid/audio.h ****     /** Non-Interleaving input buffer
  60:../../libDaisy//src/hid/audio.h ****      * Buffer arranged by float[chn][sample] 
  61:../../libDaisy//src/hid/audio.h ****      * const so that the user can't modify the input
  62:../../libDaisy//src/hid/audio.h ****      */
  63:../../libDaisy//src/hid/audio.h ****     typedef const float* const* InputBuffer;
  64:../../libDaisy//src/hid/audio.h **** 
  65:../../libDaisy//src/hid/audio.h ****     /** Non-Interleaving output buffer
  66:../../libDaisy//src/hid/audio.h ****      * Arranged by float[chn][sample] 
  67:../../libDaisy//src/hid/audio.h ****      */
  68:../../libDaisy//src/hid/audio.h ****     typedef float** OutputBuffer;
  69:../../libDaisy//src/hid/audio.h **** 
  70:../../libDaisy//src/hid/audio.h ****     /** Type for a Non-Interleaving audio callback 
  71:../../libDaisy//src/hid/audio.h ****      * Non-Interleaving audio callbacks in daisy will be of this type
  72:../../libDaisy//src/hid/audio.h ****      */
  73:../../libDaisy//src/hid/audio.h ****     typedef void (*AudioCallback)(InputBuffer  in,
  74:../../libDaisy//src/hid/audio.h ****                                   OutputBuffer out,
  75:../../libDaisy//src/hid/audio.h ****                                   size_t       size);
  76:../../libDaisy//src/hid/audio.h **** 
  77:../../libDaisy//src/hid/audio.h ****     /** Interleaving Input buffer
  78:../../libDaisy//src/hid/audio.h ****      ** audio is prepared as { L0, R0, L1, R1, . . . LN, RN }]
  79:../../libDaisy//src/hid/audio.h ****      ** this is const, as the user shouldn't modify it
  80:../../libDaisy//src/hid/audio.h ****     */
  81:../../libDaisy//src/hid/audio.h ****     typedef const float* InterleavingInputBuffer;
  82:../../libDaisy//src/hid/audio.h **** 
  83:../../libDaisy//src/hid/audio.h ****     /** Interleaving Output buffer 
  84:../../libDaisy//src/hid/audio.h ****      ** audio is prepared as { L0, R0, L1, R1, . . . LN, RN }
  85:../../libDaisy//src/hid/audio.h ****     */
ARM GAS  C:\Users\kgpol\AppData\Local\Temp\ccMDpFSR.s 			page 9


  86:../../libDaisy//src/hid/audio.h ****     typedef float* InterleavingOutputBuffer;
  87:../../libDaisy//src/hid/audio.h **** 
  88:../../libDaisy//src/hid/audio.h ****     /** Interleaving Audio Callback 
  89:../../libDaisy//src/hid/audio.h ****      * Interleaving audio callbacks in daisy must be of this type
  90:../../libDaisy//src/hid/audio.h ****      */
  91:../../libDaisy//src/hid/audio.h ****     typedef void (*InterleavingAudioCallback)(InterleavingInputBuffer  in,
  92:../../libDaisy//src/hid/audio.h ****                                               InterleavingOutputBuffer out,
  93:../../libDaisy//src/hid/audio.h ****                                               size_t                   size);
  94:../../libDaisy//src/hid/audio.h **** 
  95:../../libDaisy//src/hid/audio.h ****     AudioHandle() : pimpl_(nullptr) {}
  96:../../libDaisy//src/hid/audio.h ****     ~AudioHandle() {}
  81              		.loc 6 96 5 is_stmt 1 view .LVU9
  82              		.loc 6 96 5 is_stmt 0 view .LVU10
  83              	.LBE124:
  84              		.loc 2 22 19 view .LVU11
  85 0000 7047     		bx	lr
  86              		.cfi_endproc
  87              	.LFE4676:
  89              		.weak	_ZN5daisy9DaisySeedD1Ev
  90              		.thumb_set _ZN5daisy9DaisySeedD1Ev,_ZN5daisy9DaisySeedD2Ev
  91 0002 00BF     		.section	.text._ZN7daisysp9DelayLineIfLj48000EED2Ev,"axG",%progbits,_ZN7daisysp9DelayLineIfLj48000
  92              		.align	1
  93              		.p2align 2,,3
  94              		.weak	_ZN7daisysp9DelayLineIfLj48000EED2Ev
  95              		.syntax unified
  96              		.thumb
  97              		.thumb_func
  98              		.fpu fpv5-d16
 100              	_ZN7daisysp9DelayLineIfLj48000EED2Ev:
 101              	.LVL2:
 102              	.LFB5255:
 103              		.file 7 "../../DaisySP//Source/Utility/delayline.h"
   1:../../DaisySP//Source/Utility/delayline.h **** /*
   2:../../DaisySP//Source/Utility/delayline.h **** Copyright (c) 2020 Electrosmith, Corp
   3:../../DaisySP//Source/Utility/delayline.h **** 
   4:../../DaisySP//Source/Utility/delayline.h **** Use of this source code is governed by an MIT-style
   5:../../DaisySP//Source/Utility/delayline.h **** license that can be found in the LICENSE file or at
   6:../../DaisySP//Source/Utility/delayline.h **** https://opensource.org/licenses/MIT.
   7:../../DaisySP//Source/Utility/delayline.h **** */
   8:../../DaisySP//Source/Utility/delayline.h **** 
   9:../../DaisySP//Source/Utility/delayline.h **** #pragma once
  10:../../DaisySP//Source/Utility/delayline.h **** #ifndef DSY_DELAY_H
  11:../../DaisySP//Source/Utility/delayline.h **** #define DSY_DELAY_H
  12:../../DaisySP//Source/Utility/delayline.h **** #include <stdlib.h>
  13:../../DaisySP//Source/Utility/delayline.h **** #include <stdint.h>
  14:../../DaisySP//Source/Utility/delayline.h **** namespace daisysp
  15:../../DaisySP//Source/Utility/delayline.h **** {
  16:../../DaisySP//Source/Utility/delayline.h **** /** Simple Delay line.
  17:../../DaisySP//Source/Utility/delayline.h **** November 2019
  18:../../DaisySP//Source/Utility/delayline.h **** 
  19:../../DaisySP//Source/Utility/delayline.h **** Converted to Template December 2019
  20:../../DaisySP//Source/Utility/delayline.h **** 
  21:../../DaisySP//Source/Utility/delayline.h **** declaration example: (1 second of floats)
  22:../../DaisySP//Source/Utility/delayline.h **** 
  23:../../DaisySP//Source/Utility/delayline.h **** DelayLine<float, SAMPLE_RATE> del;
  24:../../DaisySP//Source/Utility/delayline.h **** 
  25:../../DaisySP//Source/Utility/delayline.h **** By: shensley
ARM GAS  C:\Users\kgpol\AppData\Local\Temp\ccMDpFSR.s 			page 10


  26:../../DaisySP//Source/Utility/delayline.h **** */
  27:../../DaisySP//Source/Utility/delayline.h **** template <typename T, size_t max_size>
  28:../../DaisySP//Source/Utility/delayline.h **** class DelayLine
  29:../../DaisySP//Source/Utility/delayline.h **** {
  30:../../DaisySP//Source/Utility/delayline.h ****   public:
  31:../../DaisySP//Source/Utility/delayline.h ****     DelayLine() {}
  32:../../DaisySP//Source/Utility/delayline.h ****     ~DelayLine() {}
 104              		.loc 7 32 5 is_stmt 1 view -0
 105              		.cfi_startproc
 106              		@ args = 0, pretend = 0, frame = 0
 107              		@ frame_needed = 0, uses_anonymous_args = 0
 108              		@ link register save eliminated.
 109              		.loc 7 32 19 is_stmt 0 view .LVU13
 110 0000 7047     		bx	lr
 111              		.cfi_endproc
 112              	.LFE5255:
 114              		.weak	_ZN7daisysp9DelayLineIfLj48000EED1Ev
 115              		.thumb_set _ZN7daisysp9DelayLineIfLj48000EED1Ev,_ZN7daisysp9DelayLineIfLj48000EED2Ev
 116              		.section	.text._ZL13AudioCallbackPKfPfj,"ax",%progbits
 117              		.align	1
 118              		.p2align 2,,3
 119              		.syntax unified
 120              		.thumb
 121              		.thumb_func
 122              		.fpu fpv5-d16
 124              	_ZL13AudioCallbackPKfPfj:
 125              	.LVL3:
 126              	.LFB4681:
 127              		.file 8 "delay-module.cpp"
   1:delay-module.cpp **** // TO DO
   2:delay-module.cpp **** // Add clock sync
   3:delay-module.cpp **** // Add tap tempo
   4:delay-module.cpp **** // Add split/linked modes for delay time
   5:delay-module.cpp **** 
   6:delay-module.cpp **** #include "daisysp.h"
   7:delay-module.cpp **** #include "daisy_seed.h"
   8:delay-module.cpp **** 
   9:delay-module.cpp **** // Interleaved audio definitions
  10:delay-module.cpp **** #define LEFT (i)
  11:delay-module.cpp **** #define RIGHT (i + 1)
  12:delay-module.cpp **** 
  13:delay-module.cpp **** // Set max delay time to 1 second
  14:delay-module.cpp **** #define MAX_DELAY static_cast<size_t>(48000)
  15:delay-module.cpp **** 
  16:delay-module.cpp **** using namespace daisysp;
  17:delay-module.cpp **** using namespace daisy;
  18:delay-module.cpp **** 
  19:delay-module.cpp **** static DaisySeed hw;
  20:delay-module.cpp **** AnalogControl cv_0, cv_1, cv_2, cv_3;
  21:delay-module.cpp **** 
  22:delay-module.cpp **** // Declare 2 DelayLines of MAX_DELAY number of floats.
  23:delay-module.cpp **** static DelayLine<float, MAX_DELAY> delay_l, delay_r;
  24:delay-module.cpp **** 
  25:delay-module.cpp **** static void AudioCallback(AudioHandle::InterleavingInputBuffer  in,
  26:delay-module.cpp ****                           AudioHandle::InterleavingOutputBuffer out,
  27:delay-module.cpp ****                           size_t                                size)
  28:delay-module.cpp **** {
ARM GAS  C:\Users\kgpol\AppData\Local\Temp\ccMDpFSR.s 			page 11


 128              		.loc 8 28 1 is_stmt 1 view -0
 129              		.cfi_startproc
 130              		@ args = 0, pretend = 0, frame = 16
 131              		@ frame_needed = 0, uses_anonymous_args = 0
  29:delay-module.cpp ****     float   time_factor_1,
 132              		.loc 8 29 5 view .LVU15
  30:delay-module.cpp ****             time_factor_2,
  31:delay-module.cpp ****             fdbk_amount,
  32:delay-module.cpp ****             mix,
  33:delay-module.cpp ****             feedback_l,
  34:delay-module.cpp ****             feedback_r,
  35:delay-module.cpp ****             del_out_l,
  36:delay-module.cpp ****             del_out_r,
  37:delay-module.cpp ****             sig_in_l,
  38:delay-module.cpp ****             sig_in_r,
  39:delay-module.cpp ****             sig_out_l,
  40:delay-module.cpp ****             sig_out_r;
  41:delay-module.cpp **** 
  42:delay-module.cpp ****     time_factor_1 = cv_0.Process();
 133              		.loc 8 42 5 view .LVU16
  28:delay-module.cpp ****     float   time_factor_1,
 134              		.loc 8 28 1 is_stmt 0 view .LVU17
 135 0000 2DE9F04F 		push	{r4, r5, r6, r7, r8, r9, r10, fp, lr}
 136              		.cfi_def_cfa_offset 36
 137              		.cfi_offset 4, -36
 138              		.cfi_offset 5, -32
 139              		.cfi_offset 6, -28
 140              		.cfi_offset 7, -24
 141              		.cfi_offset 8, -20
 142              		.cfi_offset 9, -16
 143              		.cfi_offset 10, -12
 144              		.cfi_offset 11, -8
 145              		.cfi_offset 14, -4
 146 0004 8046     		mov	r8, r0
 147              		.loc 8 42 33 view .LVU18
 148 0006 6348     		ldr	r0, .L15
 149              	.LVL4:
  28:delay-module.cpp ****     float   time_factor_1,
 150              		.loc 8 28 1 view .LVU19
 151 0008 0F46     		mov	r7, r1
 152 000a 1446     		mov	r4, r2
 153              	.LBB138:
 154              	.LBB139:
  33:../../DaisySP//Source/Utility/delayline.h ****     /** initializes the delay line by clearing the values within, and setting delay to 1 sample.
  34:../../DaisySP//Source/Utility/delayline.h ****     */
  35:../../DaisySP//Source/Utility/delayline.h ****     void Init() { Reset(); }
  36:../../DaisySP//Source/Utility/delayline.h ****     /** clears buffer, sets write ptr to 0, and delay to 1 sample.
  37:../../DaisySP//Source/Utility/delayline.h ****     */
  38:../../DaisySP//Source/Utility/delayline.h ****     void Reset()
  39:../../DaisySP//Source/Utility/delayline.h ****     {
  40:../../DaisySP//Source/Utility/delayline.h ****         for(size_t i = 0; i < max_size; i++)
  41:../../DaisySP//Source/Utility/delayline.h ****         {
  42:../../DaisySP//Source/Utility/delayline.h ****             line_[i] = T(0);
  43:../../DaisySP//Source/Utility/delayline.h ****         }
  44:../../DaisySP//Source/Utility/delayline.h ****         write_ptr_ = 0;
  45:../../DaisySP//Source/Utility/delayline.h ****         delay_     = 1;
  46:../../DaisySP//Source/Utility/delayline.h ****     }
ARM GAS  C:\Users\kgpol\AppData\Local\Temp\ccMDpFSR.s 			page 12


  47:../../DaisySP//Source/Utility/delayline.h **** 
  48:../../DaisySP//Source/Utility/delayline.h ****     /** sets the delay time in samples
  49:../../DaisySP//Source/Utility/delayline.h ****         If a float is passed in, a fractional component will be calculated for interpolating the de
  50:../../DaisySP//Source/Utility/delayline.h ****     */
  51:../../DaisySP//Source/Utility/delayline.h ****     inline void SetDelay(size_t delay)
  52:../../DaisySP//Source/Utility/delayline.h ****     {
  53:../../DaisySP//Source/Utility/delayline.h ****         frac_  = 0.0f;
  54:../../DaisySP//Source/Utility/delayline.h ****         delay_ = delay < max_size ? delay : max_size - 1;
  55:../../DaisySP//Source/Utility/delayline.h ****     }
  56:../../DaisySP//Source/Utility/delayline.h **** 
  57:../../DaisySP//Source/Utility/delayline.h ****     /** sets the delay time in samples
  58:../../DaisySP//Source/Utility/delayline.h ****         If a float is passed in, a fractional component will be calculated for interpolating the de
  59:../../DaisySP//Source/Utility/delayline.h ****     */
  60:../../DaisySP//Source/Utility/delayline.h ****     inline void SetDelay(float delay)
  61:../../DaisySP//Source/Utility/delayline.h ****     {
  62:../../DaisySP//Source/Utility/delayline.h ****         int32_t int_delay = static_cast<int32_t>(delay);
  63:../../DaisySP//Source/Utility/delayline.h ****         frac_             = delay - static_cast<float>(int_delay);
  64:../../DaisySP//Source/Utility/delayline.h ****         delay_ = static_cast<size_t>(int_delay) < max_size ? int_delay
 155              		.loc 7 64 60 view .LVU20
 156 000c 4BF67F3A 		movw	r10, #47999
  63:../../DaisySP//Source/Utility/delayline.h ****         delay_ = static_cast<size_t>(int_delay) < max_size ? int_delay
 157              		.loc 7 63 27 view .LVU21
 158 0010 614E     		ldr	r6, .L15+4
 159              	.LBE139:
 160              	.LBE138:
 161              	.LBB144:
 162              	.LBB145:
 163 0012 624D     		ldr	r5, .L15+8
 164              	.LBE145:
 165              	.LBE144:
  28:delay-module.cpp ****     float   time_factor_1,
 166              		.loc 8 28 1 view .LVU22
 167 0014 2DED048B 		vpush.64	{d8, d9}
 168              		.cfi_def_cfa_offset 52
 169              		.cfi_offset 80, -52
 170              		.cfi_offset 81, -48
 171              		.cfi_offset 82, -44
 172              		.cfi_offset 83, -40
 173 0018 85B0     		sub	sp, sp, #20
 174              		.cfi_def_cfa_offset 72
 175              		.loc 8 42 33 view .LVU23
 176 001a FFF7FEFF 		bl	_ZN5daisy13AnalogControl7ProcessEv
 177              	.LVL5:
  43:delay-module.cpp ****     time_factor_2 = cv_1.Process();
 178              		.loc 8 43 33 view .LVU24
 179 001e 6048     		ldr	r0, .L15+12
  42:delay-module.cpp ****     time_factor_2 = cv_1.Process();
 180              		.loc 8 42 33 view .LVU25
 181 0020 F0EE408A 		vmov.f32	s17, s0
 182              	.LVL6:
 183              		.loc 8 43 5 is_stmt 1 view .LVU26
 184              		.loc 8 43 33 is_stmt 0 view .LVU27
 185 0024 FFF7FEFF 		bl	_ZN5daisy13AnalogControl7ProcessEv
 186              	.LVL7:
  44:delay-module.cpp ****     fdbk_amount = cv_2.Process();
 187              		.loc 8 44 31 view .LVU28
 188 0028 5E48     		ldr	r0, .L15+16
ARM GAS  C:\Users\kgpol\AppData\Local\Temp\ccMDpFSR.s 			page 13


  43:delay-module.cpp ****     time_factor_2 = cv_1.Process();
 189              		.loc 8 43 33 view .LVU29
 190 002a B0EE408A 		vmov.f32	s16, s0
 191              	.LVL8:
 192              		.loc 8 44 5 is_stmt 1 view .LVU30
 193              		.loc 8 44 31 is_stmt 0 view .LVU31
 194 002e FFF7FEFF 		bl	_ZN5daisy13AnalogControl7ProcessEv
 195              	.LVL9:
  45:delay-module.cpp ****     mix = cv_3.Process();
 196              		.loc 8 45 23 view .LVU32
 197 0032 5D48     		ldr	r0, .L15+20
  44:delay-module.cpp ****     fdbk_amount = cv_2.Process();
 198              		.loc 8 44 31 view .LVU33
 199 0034 B0EE409A 		vmov.f32	s18, s0
 200              	.LVL10:
 201              		.loc 8 45 5 is_stmt 1 view .LVU34
 202              		.loc 8 45 23 is_stmt 0 view .LVU35
 203 0038 FFF7FEFF 		bl	_ZN5daisy13AnalogControl7ProcessEv
 204              	.LVL11:
  46:delay-module.cpp **** 
  47:delay-module.cpp ****     delay_l.SetDelay(MAX_DELAY * time_factor_1);
 205              		.loc 8 47 5 is_stmt 1 view .LVU36
 206              		.loc 8 47 21 is_stmt 0 view .LVU37
 207 003c 9FED5B5A 		vldr.32	s10, .L15+24
 208 0040 68EE855A 		vmul.f32	s11, s17, s10
 209              	.LVL12:
 210              	.LBB150:
 211              	.LBI138:
  60:../../DaisySP//Source/Utility/delayline.h ****     {
 212              		.loc 7 60 17 is_stmt 1 view .LVU38
 213              	.LBE150:
  48:delay-module.cpp ****     delay_r.SetDelay(MAX_DELAY * time_factor_2);
 214              		.loc 8 48 21 is_stmt 0 view .LVU39
 215 0044 28EE055A 		vmul.f32	s10, s16, s10
 216              	.LBB151:
 217              	.LBB140:
  62:../../DaisySP//Source/Utility/delayline.h ****         frac_             = delay - static_cast<float>(int_delay);
 218              		.loc 7 62 17 view .LVU40
 219 0048 BDEEE57A 		vcvt.s32.f32	s14, s11
 220              	.LVL13:
  62:../../DaisySP//Source/Utility/delayline.h ****         frac_             = delay - static_cast<float>(int_delay);
 221              		.loc 7 62 17 view .LVU41
 222              	.LBE140:
 223              	.LBE151:
 224              	.LBB152:
 225              	.LBB146:
 226 004c FDEEC57A 		vcvt.s32.f32	s15, s10
 227              	.LBE146:
 228              	.LBE152:
 229              	.LBB153:
 230              	.LBB141:
 231              		.loc 7 64 60 view .LVU42
 232 0050 17EE10BA 		vmov	fp, s14	@ int
  63:../../DaisySP//Source/Utility/delayline.h ****         delay_ = static_cast<size_t>(int_delay) < max_size ? int_delay
 233              		.loc 7 63 37 view .LVU43
 234 0054 B8EEC76A 		vcvt.f32.s32	s12, s14
 235              	.LBE141:
ARM GAS  C:\Users\kgpol\AppData\Local\Temp\ccMDpFSR.s 			page 14


 236              	.LBE153:
 237              	.LBB154:
 238              	.LBB147:
 239              		.loc 7 64 60 view .LVU44
 240 0058 17EE903A 		vmov	r3, s15	@ int
  63:../../DaisySP//Source/Utility/delayline.h ****         delay_ = static_cast<size_t>(int_delay) < max_size ? int_delay
 241              		.loc 7 63 37 view .LVU45
 242 005c F8EEE76A 		vcvt.f32.s32	s13, s15
 243              	.LBE147:
 244              	.LBE154:
 245              	.LBB155:
 246              	.LBB142:
 247              		.loc 7 64 60 view .LVU46
 248 0060 D345     		cmp	fp, r10
  63:../../DaisySP//Source/Utility/delayline.h ****         delay_ = static_cast<size_t>(int_delay) < max_size ? int_delay
 249              		.loc 7 63 35 view .LVU47
 250 0062 75EEC65A 		vsub.f32	s11, s11, s12
 251              	.LVL14:
 252              		.loc 7 64 60 view .LVU48
 253 0066 28BF     		it	cs
 254 0068 D346     		movcs	fp, r10
 255              	.LBE142:
 256              	.LBE155:
 257              	.LBB156:
 258              	.LBB148:
 259 006a 5345     		cmp	r3, r10
  63:../../DaisySP//Source/Utility/delayline.h ****         delay_ = static_cast<size_t>(int_delay) < max_size ? int_delay
 260              		.loc 7 63 35 view .LVU49
 261 006c 35EE665A 		vsub.f32	s10, s10, s13
 262              		.loc 7 64 60 view .LVU50
 263 0070 28BF     		it	cs
 264 0072 5346     		movcs	r3, r10
 265              	.LBE148:
 266              	.LBE156:
 267              	.LBB157:
 268              	.LBB143:
  63:../../DaisySP//Source/Utility/delayline.h ****         delay_ = static_cast<size_t>(int_delay) < max_size ? int_delay
 269              		.loc 7 63 27 view .LVU51
 270 0074 C6ED005A 		vstr.32	s11, [r6]
 271              		.loc 7 64 16 view .LVU52
 272 0078 C6F808B0 		str	fp, [r6, #8]
 273              	.LVL15:
 274              		.loc 7 64 16 view .LVU53
 275              	.LBE143:
 276              	.LBE157:
 277              		.loc 8 48 5 is_stmt 1 view .LVU54
 278              	.LBB158:
 279              	.LBI144:
  60:../../DaisySP//Source/Utility/delayline.h ****     {
 280              		.loc 7 60 17 view .LVU55
 281              	.LBB149:
  63:../../DaisySP//Source/Utility/delayline.h ****         delay_ = static_cast<size_t>(int_delay) < max_size ? int_delay
 282              		.loc 7 63 27 is_stmt 0 view .LVU56
 283 007c 85ED005A 		vstr.32	s10, [r5]
 284              		.loc 7 64 16 view .LVU57
 285 0080 AB60     		str	r3, [r5, #8]
 286              	.LVL16:
ARM GAS  C:\Users\kgpol\AppData\Local\Temp\ccMDpFSR.s 			page 15


 287              		.loc 7 64 16 view .LVU58
 288              	.LBE149:
 289              	.LBE158:
  49:delay-module.cpp **** 
  50:delay-module.cpp ****     for(size_t i = 0; i < size; i += 2)
 290              		.loc 8 50 5 is_stmt 1 view .LVU59
 291              	.LBB159:
 292              		.loc 8 50 25 view .LVU60
 293 0082 002C     		cmp	r4, #0
 294 0084 00F08180 		beq	.L5
 295 0088 013C     		subs	r4, r4, #1
 296              	.LVL17:
 297              		.loc 8 50 25 is_stmt 0 view .LVU61
 298 008a 9A46     		mov	r10, r3
 299 008c 08F10803 		add	r3, r8, #8
 300 0090 4046     		mov	r0, r8
 301 0092 6408     		lsrs	r4, r4, #1
 302              	.LVL18:
 303              		.loc 8 50 25 view .LVU62
 304 0094 BE46     		mov	lr, r7
 305 0096 7268     		ldr	r2, [r6, #4]
 306 0098 03EBC403 		add	r3, r3, r4, lsl #3
 307 009c CDF80CA0 		str	r10, [sp, #12]
 308 00a0 6C68     		ldr	r4, [r5, #4]
 309 00a2 0293     		str	r3, [sp, #8]
 310 00a4 03E0     		b	.L8
 311              	.LVL19:
 312              	.L14:
 313              	.LBB160:
 314              	.LBB161:
  65:../../DaisySP//Source/Utility/delayline.h ****                                                            : max_size - 1;
  66:../../DaisySP//Source/Utility/delayline.h ****     }
  67:../../DaisySP//Source/Utility/delayline.h **** 
  68:../../DaisySP//Source/Utility/delayline.h ****     /** writes the sample of type T to the delay line, and advances the write ptr
  69:../../DaisySP//Source/Utility/delayline.h ****     */
  70:../../DaisySP//Source/Utility/delayline.h ****     inline void Write(const T sample)
  71:../../DaisySP//Source/Utility/delayline.h ****     {
  72:../../DaisySP//Source/Utility/delayline.h ****         line_[write_ptr_] = sample;
  73:../../DaisySP//Source/Utility/delayline.h ****         write_ptr_        = (write_ptr_ - 1 + max_size) % max_size;
  74:../../DaisySP//Source/Utility/delayline.h ****     }
  75:../../DaisySP//Source/Utility/delayline.h **** 
  76:../../DaisySP//Source/Utility/delayline.h ****     /** returns the next sample of type T in the delay line, interpolated if necessary.
  77:../../DaisySP//Source/Utility/delayline.h ****     */
  78:../../DaisySP//Source/Utility/delayline.h ****     inline const T Read() const
  79:../../DaisySP//Source/Utility/delayline.h ****     {
  80:../../DaisySP//Source/Utility/delayline.h ****         T a = line_[(write_ptr_ + delay_) % max_size];
  81:../../DaisySP//Source/Utility/delayline.h ****         T b = line_[(write_ptr_ + delay_ + 1) % max_size];
  82:../../DaisySP//Source/Utility/delayline.h ****         return a + (b - a) * frac_;
 315              		.loc 7 82 30 view .LVU63
 316 00a6 95ED005A 		vldr.32	s10, [r5]
 317              	.LBE161:
 318              	.LBE160:
 319              	.LBB173:
 320              	.LBB174:
 321 00aa D6ED005A 		vldr.32	s11, [r6]
 322              	.LVL20:
 323              	.L8:
ARM GAS  C:\Users\kgpol\AppData\Local\Temp\ccMDpFSR.s 			page 16


 324              		.loc 7 82 30 view .LVU64
 325              	.LBE174:
 326              	.LBE173:
  51:delay-module.cpp ****     {
  52:delay-module.cpp ****         // Read from the inputs and delay line
  53:delay-module.cpp ****         sig_in_l = in[LEFT];
 327              		.loc 8 53 9 is_stmt 1 discriminator 2 view .LVU65
 328              	.LBB184:
 329              	.LBB175:
  80:../../DaisySP//Source/Utility/delayline.h ****         T b = line_[(write_ptr_ + delay_ + 1) % max_size];
 330              		.loc 7 80 43 is_stmt 0 discriminator 2 view .LVU66
 331 00ae 404B     		ldr	r3, .L15+28
  80:../../DaisySP//Source/Utility/delayline.h ****         T b = line_[(write_ptr_ + delay_ + 1) % max_size];
 332              		.loc 7 80 33 discriminator 2 view .LVU67
 333 00b0 02EB0B08 		add	r8, r2, fp
  80:../../DaisySP//Source/Utility/delayline.h ****         T b = line_[(write_ptr_ + delay_ + 1) % max_size];
 334              		.loc 7 80 43 discriminator 2 view .LVU68
 335 00b4 4BF68031 		movw	r1, #48000
 336              	.LBE175:
 337              	.LBE184:
 338              		.loc 8 53 18 discriminator 2 view .LVU69
 339 00b8 90ED006A 		vldr.32	s12, [r0]
 340              	.LVL21:
  54:delay-module.cpp ****         sig_in_r = in[RIGHT];
 341              		.loc 8 54 9 is_stmt 1 discriminator 2 view .LVU70
 342              	.LBB185:
 343              	.LBB176:
  80:../../DaisySP//Source/Utility/delayline.h ****         T b = line_[(write_ptr_ + delay_ + 1) % max_size];
 344              		.loc 7 80 43 is_stmt 0 discriminator 2 view .LVU71
 345 00bc A3FB0897 		umull	r9, r7, r3, r8
  81:../../DaisySP//Source/Utility/delayline.h ****         return a + (b - a) * frac_;
 346              		.loc 7 81 42 discriminator 2 view .LVU72
 347 00c0 08F1010C 		add	ip, r8, #1
 348              	.LBE176:
 349              	.LBE185:
  55:delay-module.cpp ****         del_out_l = delay_l.Read();
  56:delay-module.cpp ****         del_out_r = delay_r.Read();
  57:delay-module.cpp **** 
  58:delay-module.cpp ****         // Calculate output and feedback
  59:delay-module.cpp ****         sig_out_l  = del_out_l + sig_in_l;
  60:delay-module.cpp ****         feedback_l = (del_out_l * fdbk_amount) + sig_in_l;
 350              		.loc 8 60 20 discriminator 2 view .LVU73
 351 00c4 F0EE464A 		vmov.f32	s9, s12
  54:delay-module.cpp ****         del_out_l = delay_l.Read();
 352              		.loc 8 54 18 discriminator 2 view .LVU74
 353 00c8 D0ED016A 		vldr.32	s13, [r0, #4]
 354              	.LVL22:
  55:delay-module.cpp ****         del_out_l = delay_l.Read();
 355              		.loc 8 55 9 is_stmt 1 discriminator 2 view .LVU75
 356              	.LBB186:
 357              	.LBI173:
  78:../../DaisySP//Source/Utility/delayline.h ****     {
 358              		.loc 7 78 20 discriminator 2 view .LVU76
 359              	.LBB177:
  80:../../DaisySP//Source/Utility/delayline.h ****         T b = line_[(write_ptr_ + delay_ + 1) % max_size];
 360              		.loc 7 80 43 is_stmt 0 discriminator 2 view .LVU77
 361 00cc BF0A     		lsrs	r7, r7, #10
ARM GAS  C:\Users\kgpol\AppData\Local\Temp\ccMDpFSR.s 			page 17


  81:../../DaisySP//Source/Utility/delayline.h ****         return a + (b - a) * frac_;
 362              		.loc 7 81 47 discriminator 2 view .LVU78
 363 00ce A3FB0CA9 		umull	r10, r9, r3, ip
 364              	.LBE177:
 365              	.LBE186:
  50:delay-module.cpp ****     {
 366              		.loc 8 50 25 discriminator 2 view .LVU79
 367 00d2 0830     		adds	r0, r0, #8
 368 00d4 0EF1080E 		add	lr, lr, #8
 369              	.LBB187:
 370              	.LBB178:
  80:../../DaisySP//Source/Utility/delayline.h ****         T b = line_[(write_ptr_ + delay_ + 1) % max_size];
 371              		.loc 7 80 43 discriminator 2 view .LVU80
 372 00d8 01FB1787 		mls	r7, r1, r7, r8
  81:../../DaisySP//Source/Utility/delayline.h ****         return a + (b - a) * frac_;
 373              		.loc 7 81 47 discriminator 2 view .LVU81
 374 00dc 4FEA9929 		lsr	r9, r9, #10
  80:../../DaisySP//Source/Utility/delayline.h ****         T b = line_[(write_ptr_ + delay_ + 1) % max_size];
 375              		.loc 7 80 43 discriminator 2 view .LVU82
 376 00e0 0197     		str	r7, [sp, #4]
 377              	.LBE178:
 378              	.LBE187:
 379              	.LBB188:
 380              	.LBB162:
  80:../../DaisySP//Source/Utility/delayline.h ****         T b = line_[(write_ptr_ + delay_ + 1) % max_size];
 381              		.loc 7 80 33 discriminator 2 view .LVU83
 382 00e2 039F     		ldr	r7, [sp, #12]
 383              	.LBE162:
 384              	.LBE188:
 385              	.LBB189:
 386              	.LBB179:
  81:../../DaisySP//Source/Utility/delayline.h ****         return a + (b - a) * frac_;
 387              		.loc 7 81 47 discriminator 2 view .LVU84
 388 00e4 01FB19C9 		mls	r9, r1, r9, ip
 389              	.LBE179:
 390              	.LBE189:
 391              	.LBB190:
 392              	.LBB163:
  80:../../DaisySP//Source/Utility/delayline.h ****         T b = line_[(write_ptr_ + delay_ + 1) % max_size];
 393              		.loc 7 80 33 discriminator 2 view .LVU85
 394 00e8 04EB0708 		add	r8, r4, r7
 395              	.LBE163:
 396              	.LBE190:
 397              	.LBB191:
 398              	.LBB180:
  80:../../DaisySP//Source/Utility/delayline.h ****         T b = line_[(write_ptr_ + delay_ + 1) % max_size];
 399              		.loc 7 80 11 discriminator 2 view .LVU86
 400 00ec 019F     		ldr	r7, [sp, #4]
  81:../../DaisySP//Source/Utility/delayline.h ****         return a + (b - a) * frac_;
 401              		.loc 7 81 11 discriminator 2 view .LVU87
 402 00ee 06EB8909 		add	r9, r6, r9, lsl #2
  80:../../DaisySP//Source/Utility/delayline.h ****         T b = line_[(write_ptr_ + delay_ + 1) % max_size];
 403              		.loc 7 80 11 discriminator 2 view .LVU88
 404 00f2 06EB8707 		add	r7, r6, r7, lsl #2
 405              	.LBE180:
 406              	.LBE191:
 407              	.LBB192:
ARM GAS  C:\Users\kgpol\AppData\Local\Temp\ccMDpFSR.s 			page 18


 408              	.LBB164:
  81:../../DaisySP//Source/Utility/delayline.h ****         return a + (b - a) * frac_;
 409              		.loc 7 81 42 discriminator 2 view .LVU89
 410 00f6 08F1010C 		add	ip, r8, #1
 411              	.LBE164:
 412              	.LBE192:
 413              	.LBB193:
 414              	.LBB181:
 415              		.loc 7 82 23 discriminator 2 view .LVU90
 416 00fa D9ED037A 		vldr.32	s15, [r9, #12]
  80:../../DaisySP//Source/Utility/delayline.h ****         T b = line_[(write_ptr_ + delay_ + 1) % max_size];
 417              		.loc 7 80 11 discriminator 2 view .LVU91
 418 00fe 97ED037A 		vldr.32	s14, [r7, #12]
 419              	.LVL23:
  80:../../DaisySP//Source/Utility/delayline.h ****         T b = line_[(write_ptr_ + delay_ + 1) % max_size];
 420              		.loc 7 80 11 discriminator 2 view .LVU92
 421              	.LBE181:
 422              	.LBE193:
 423              	.LBB194:
 424              	.LBB165:
  80:../../DaisySP//Source/Utility/delayline.h ****         T b = line_[(write_ptr_ + delay_ + 1) % max_size];
 425              		.loc 7 80 43 discriminator 2 view .LVU93
 426 0102 A3FB0897 		umull	r9, r7, r3, r8
 427 0106 BF0A     		lsrs	r7, r7, #10
 428              	.LBE165:
 429              	.LBE194:
 430              	.LBB195:
 431              	.LBB182:
 432              		.loc 7 82 23 discriminator 2 view .LVU94
 433 0108 77EEC77A 		vsub.f32	s15, s15, s14
 434              	.LBE182:
 435              	.LBE195:
 436              	.LBB196:
 437              	.LBB166:
  80:../../DaisySP//Source/Utility/delayline.h ****         T b = line_[(write_ptr_ + delay_ + 1) % max_size];
 438              		.loc 7 80 43 discriminator 2 view .LVU95
 439 010c 01FB1788 		mls	r8, r1, r7, r8
  81:../../DaisySP//Source/Utility/delayline.h ****         return a + (b - a) * frac_;
 440              		.loc 7 81 47 discriminator 2 view .LVU96
 441 0110 A3FB0C97 		umull	r9, r7, r3, ip
 442              	.LBE166:
 443              	.LBE196:
 444              	.LBB197:
 445              	.LBB183:
 446              		.loc 7 82 30 discriminator 2 view .LVU97
 447 0114 A7EEA57A 		vfma.f32	s14, s15, s11
 448              	.LVL24:
 449              		.loc 7 82 30 discriminator 2 view .LVU98
 450              	.LBE183:
 451              	.LBE197:
  56:delay-module.cpp **** 
 452              		.loc 8 56 9 is_stmt 1 discriminator 2 view .LVU99
 453              	.LBB198:
 454              	.LBI160:
  78:../../DaisySP//Source/Utility/delayline.h ****     {
 455              		.loc 7 78 20 discriminator 2 view .LVU100
 456              	.LBB167:
ARM GAS  C:\Users\kgpol\AppData\Local\Temp\ccMDpFSR.s 			page 19


  80:../../DaisySP//Source/Utility/delayline.h ****         T b = line_[(write_ptr_ + delay_ + 1) % max_size];
 457              		.loc 7 80 11 is_stmt 0 discriminator 2 view .LVU101
 458 0118 05EB8808 		add	r8, r5, r8, lsl #2
  81:../../DaisySP//Source/Utility/delayline.h ****         return a + (b - a) * frac_;
 459              		.loc 7 81 47 discriminator 2 view .LVU102
 460 011c BF0A     		lsrs	r7, r7, #10
  80:../../DaisySP//Source/Utility/delayline.h ****         T b = line_[(write_ptr_ + delay_ + 1) % max_size];
 461              		.loc 7 80 11 discriminator 2 view .LVU103
 462 011e D8ED037A 		vldr.32	s15, [r8, #12]
 463              	.LVL25:
  80:../../DaisySP//Source/Utility/delayline.h ****         T b = line_[(write_ptr_ + delay_ + 1) % max_size];
 464              		.loc 7 80 11 discriminator 2 view .LVU104
 465              	.LBE167:
 466              	.LBE198:
 467              	.LBB199:
 468              	.LBB200:
  72:../../DaisySP//Source/Utility/delayline.h ****         write_ptr_        = (write_ptr_ - 1 + max_size) % max_size;
 469              		.loc 7 72 27 discriminator 2 view .LVU105
 470 0122 06EB8209 		add	r9, r6, r2, lsl #2
 471              	.LBE200:
 472              	.LBE199:
 473              	.LBB206:
 474              	.LBB168:
  81:../../DaisySP//Source/Utility/delayline.h ****         return a + (b - a) * frac_;
 475              		.loc 7 81 47 discriminator 2 view .LVU106
 476 0126 01FB17CC 		mls	ip, r1, r7, ip
 477              	.LVL26:
  81:../../DaisySP//Source/Utility/delayline.h ****         return a + (b - a) * frac_;
 478              		.loc 7 81 47 discriminator 2 view .LVU107
 479              	.LBE168:
 480              	.LBE206:
 481              	.LBB207:
 482              	.LBB201:
  73:../../DaisySP//Source/Utility/delayline.h ****     }
 483              		.loc 7 73 45 discriminator 2 view .LVU108
 484 012a 4BF67F37 		movw	r7, #47999
 485              	.LBE201:
 486              	.LBE207:
 487              	.LBB208:
 488              	.LBB169:
  81:../../DaisySP//Source/Utility/delayline.h ****         return a + (b - a) * frac_;
 489              		.loc 7 81 11 discriminator 2 view .LVU109
 490 012e 05EB8C0C 		add	ip, r5, ip, lsl #2
 491              	.LBE169:
 492              	.LBE208:
 493              		.loc 8 60 20 discriminator 2 view .LVU110
 494 0132 E9EE074A 		vfma.f32	s9, s18, s14
  59:delay-module.cpp ****         feedback_l = (del_out_l * fdbk_amount) + sig_in_l;
 495              		.loc 8 59 20 discriminator 2 view .LVU111
 496 0136 36EE077A 		vadd.f32	s14, s12, s14
 497              	.LVL27:
 498              	.LBB209:
 499              	.LBB170:
 500              		.loc 7 82 23 discriminator 2 view .LVU112
 501 013a DCED035A 		vldr.32	s11, [ip, #12]
 502              	.LVL28:
 503              		.loc 7 82 23 discriminator 2 view .LVU113
ARM GAS  C:\Users\kgpol\AppData\Local\Temp\ccMDpFSR.s 			page 20


 504              	.LBE170:
 505              	.LBE209:
 506              	.LBB210:
 507              	.LBB202:
  73:../../DaisySP//Source/Utility/delayline.h ****     }
 508              		.loc 7 73 45 discriminator 2 view .LVU114
 509 013e 02EB070C 		add	ip, r2, r7
 510              	.LBE202:
 511              	.LBE210:
 512              	.LBB211:
 513              	.LBB212:
 514 0142 2744     		add	r7, r7, r4
 515              	.LBE212:
 516              	.LBE211:
 517              	.LBB217:
 518              	.LBB171:
 519              		.loc 7 82 23 discriminator 2 view .LVU115
 520 0144 35EEE76A 		vsub.f32	s12, s11, s15
 521              	.LVL29:
 522              		.loc 7 82 23 discriminator 2 view .LVU116
 523              	.LBE171:
 524              	.LBE217:
 525              	.LBB218:
 526              	.LBB203:
  73:../../DaisySP//Source/Utility/delayline.h ****     }
 527              		.loc 7 73 57 discriminator 2 view .LVU117
 528 0148 A3FB0C82 		umull	r8, r2, r3, ip
  73:../../DaisySP//Source/Utility/delayline.h ****     }
 529              		.loc 7 73 57 discriminator 2 view .LVU118
 530              	.LBE203:
 531              	.LBE218:
 532              	.LBB219:
 533              	.LBB213:
 534 014c A3FB0783 		umull	r8, r3, r3, r7
  72:../../DaisySP//Source/Utility/delayline.h ****         write_ptr_        = (write_ptr_ - 1 + max_size) % max_size;
 535              		.loc 7 72 27 discriminator 2 view .LVU119
 536 0150 05EB8408 		add	r8, r5, r4, lsl #2
 537              	.LBE213:
 538              	.LBE219:
 539              	.LBB220:
 540              	.LBB204:
  73:../../DaisySP//Source/Utility/delayline.h ****     }
 541              		.loc 7 73 57 discriminator 2 view .LVU120
 542 0154 920A     		lsrs	r2, r2, #10
  72:../../DaisySP//Source/Utility/delayline.h ****         write_ptr_        = (write_ptr_ - 1 + max_size) % max_size;
 543              		.loc 7 72 27 discriminator 2 view .LVU121
 544 0156 C9ED034A 		vstr.32	s9, [r9, #12]
 545              	.LVL30:
  72:../../DaisySP//Source/Utility/delayline.h ****         write_ptr_        = (write_ptr_ - 1 + max_size) % max_size;
 546              		.loc 7 72 27 discriminator 2 view .LVU122
 547              	.LBE204:
 548              	.LBE220:
 549              	.LBB221:
 550              	.LBB172:
 551              		.loc 7 82 30 discriminator 2 view .LVU123
 552 015a E6EE057A 		vfma.f32	s15, s12, s10
 553              	.LVL31:
ARM GAS  C:\Users\kgpol\AppData\Local\Temp\ccMDpFSR.s 			page 21


 554              		.loc 7 82 30 discriminator 2 view .LVU124
 555              	.LBE172:
 556              	.LBE221:
  59:delay-module.cpp ****         feedback_l = (del_out_l * fdbk_amount) + sig_in_l;
 557              		.loc 8 59 9 is_stmt 1 discriminator 2 view .LVU125
 558              		.loc 8 60 9 discriminator 2 view .LVU126
  61:delay-module.cpp ****         sig_out_r  = del_out_r + sig_in_r;
 559              		.loc 8 61 9 discriminator 2 view .LVU127
 560              	.LBB222:
 561              	.LBB214:
  73:../../DaisySP//Source/Utility/delayline.h ****     }
 562              		.loc 7 73 57 is_stmt 0 discriminator 2 view .LVU128
 563 015e 9C0A     		lsrs	r4, r3, #10
 564              	.LBE214:
 565              	.LBE222:
  62:delay-module.cpp ****         feedback_r = (del_out_r * fdbk_amount) + sig_in_r;
 566              		.loc 8 62 20 discriminator 2 view .LVU129
 567 0160 B0EE666A 		vmov.f32	s12, s13
  50:delay-module.cpp ****     {
 568              		.loc 8 50 25 discriminator 2 view .LVU130
 569 0164 029B     		ldr	r3, [sp, #8]
 570              	.LBB223:
 571              	.LBB205:
  73:../../DaisySP//Source/Utility/delayline.h ****     }
 572              		.loc 7 73 57 discriminator 2 view .LVU131
 573 0166 01FB12C2 		mls	r2, r1, r2, ip
 574              	.LBE205:
 575              	.LBE223:
  50:delay-module.cpp ****     {
 576              		.loc 8 50 25 discriminator 2 view .LVU132
 577 016a 8342     		cmp	r3, r0
 578              	.LBB224:
 579              	.LBB215:
  73:../../DaisySP//Source/Utility/delayline.h ****     }
 580              		.loc 7 73 57 discriminator 2 view .LVU133
 581 016c 01FB1474 		mls	r4, r1, r4, r7
 582              	.LBE215:
 583              	.LBE224:
 584              		.loc 8 62 20 discriminator 2 view .LVU134
 585 0170 A9EE276A 		vfma.f32	s12, s18, s15
  61:delay-module.cpp ****         feedback_r = (del_out_r * fdbk_amount) + sig_in_r;
 586              		.loc 8 61 20 discriminator 2 view .LVU135
 587 0174 76EEA77A 		vadd.f32	s15, s13, s15
 588              	.LVL32:
 589              		.loc 8 62 9 is_stmt 1 discriminator 2 view .LVU136
  63:delay-module.cpp **** 
  64:delay-module.cpp ****         // Write to the delay
  65:delay-module.cpp ****         delay_l.Write(feedback_l);
 590              		.loc 8 65 9 discriminator 2 view .LVU137
 591              	.LBB225:
 592              	.LBI199:
  70:../../DaisySP//Source/Utility/delayline.h ****     {
 593              		.loc 7 70 17 discriminator 2 view .LVU138
  70:../../DaisySP//Source/Utility/delayline.h ****     {
 594              		.loc 7 70 17 is_stmt 0 discriminator 2 view .LVU139
 595              	.LBE225:
  66:delay-module.cpp ****         delay_r.Write(feedback_r);
ARM GAS  C:\Users\kgpol\AppData\Local\Temp\ccMDpFSR.s 			page 22


 596              		.loc 8 66 9 is_stmt 1 discriminator 2 view .LVU140
 597              	.LBB226:
 598              	.LBI211:
  70:../../DaisySP//Source/Utility/delayline.h ****     {
 599              		.loc 7 70 17 discriminator 2 view .LVU141
  70:../../DaisySP//Source/Utility/delayline.h ****     {
 600              		.loc 7 70 17 is_stmt 0 discriminator 2 view .LVU142
 601              	.LBE226:
  67:delay-module.cpp **** 
  68:delay-module.cpp ****         // Set the outputs
  69:delay-module.cpp ****         out[LEFT]  = sig_out_l;
 602              		.loc 8 69 9 is_stmt 1 discriminator 2 view .LVU143
 603              	.LBB227:
 604              	.LBB216:
  72:../../DaisySP//Source/Utility/delayline.h ****         write_ptr_        = (write_ptr_ - 1 + max_size) % max_size;
 605              		.loc 7 72 27 is_stmt 0 discriminator 2 view .LVU144
 606 0178 88ED036A 		vstr.32	s12, [r8, #12]
  72:../../DaisySP//Source/Utility/delayline.h ****         write_ptr_        = (write_ptr_ - 1 + max_size) % max_size;
 607              		.loc 7 72 27 discriminator 2 view .LVU145
 608              	.LBE216:
 609              	.LBE227:
 610              		.loc 8 69 20 discriminator 2 view .LVU146
 611 017c 0EED027A 		vstr.32	s14, [lr, #-8]
  70:delay-module.cpp ****         out[RIGHT] = sig_out_r;
 612              		.loc 8 70 9 is_stmt 1 discriminator 2 view .LVU147
 613              		.loc 8 70 20 is_stmt 0 discriminator 2 view .LVU148
 614 0180 4EED017A 		vstr.32	s15, [lr, #-4]
  50:delay-module.cpp ****     {
 615              		.loc 8 50 5 is_stmt 1 discriminator 2 view .LVU149
  50:delay-module.cpp ****     {
 616              		.loc 8 50 25 discriminator 2 view .LVU150
 617 0184 8FD1     		bne	.L14
 618 0186 7260     		str	r2, [r6, #4]
 619 0188 6C60     		str	r4, [r5, #4]
 620              	.LVL33:
 621              	.L5:
  50:delay-module.cpp ****     {
 622              		.loc 8 50 25 is_stmt 0 discriminator 2 view .LVU151
 623              	.LBE159:
  71:delay-module.cpp ****     }
  72:delay-module.cpp **** }
 624              		.loc 8 72 1 view .LVU152
 625 018a 05B0     		add	sp, sp, #20
 626              		.cfi_def_cfa_offset 52
 627              		@ sp needed
 628 018c BDEC048B 		vldm	sp!, {d8-d9}
 629              		.cfi_restore 82
 630              		.cfi_restore 83
 631              		.cfi_restore 80
 632              		.cfi_restore 81
 633              		.cfi_def_cfa_offset 36
 634              	.LVL34:
 635              		.loc 8 72 1 view .LVU153
 636 0190 BDE8F08F 		pop	{r4, r5, r6, r7, r8, r9, r10, fp, pc}
 637              	.L16:
 638              		.align	2
 639              	.L15:
ARM GAS  C:\Users\kgpol\AppData\Local\Temp\ccMDpFSR.s 			page 23


 640 0194 00000000 		.word	.LANCHOR0
 641 0198 00000000 		.word	_ZL7delay_l
 642 019c 00000000 		.word	_ZL7delay_r
 643 01a0 00000000 		.word	.LANCHOR1
 644 01a4 00000000 		.word	.LANCHOR2
 645 01a8 00000000 		.word	.LANCHOR3
 646 01ac 00803B47 		.word	1195081728
 647 01b0 F1197605 		.word	91625969
 648              		.cfi_endproc
 649              	.LFE4681:
 651              		.section	.text.startup.main,"ax",%progbits
 652              		.align	1
 653              		.p2align 2,,3
 654              		.global	main
 655              		.syntax unified
 656              		.thumb
 657              		.thumb_func
 658              		.fpu fpv5-d16
 660              	main:
 661              	.LFB4682:
  73:delay-module.cpp **** 
  74:delay-module.cpp **** int main(void)
  75:delay-module.cpp **** {
 662              		.loc 8 75 1 is_stmt 1 view -0
 663              		.cfi_startproc
 664              		@ args = 0, pretend = 0, frame = 88
 665              		@ frame_needed = 0, uses_anonymous_args = 0
  76:delay-module.cpp ****     // initialize seed hardware and daisysp modules
  77:delay-module.cpp ****     float sample_rate;
 666              		.loc 8 77 5 view .LVU155
  78:delay-module.cpp ****     hw.Configure();
 667              		.loc 8 78 5 view .LVU156
  75:delay-module.cpp ****     // initialize seed hardware and daisysp modules
 668              		.loc 8 75 1 is_stmt 0 view .LVU157
 669 0000 2DE9F041 		push	{r4, r5, r6, r7, r8, lr}
 670              		.cfi_def_cfa_offset 24
 671              		.cfi_offset 4, -24
 672              		.cfi_offset 5, -20
 673              		.cfi_offset 6, -16
 674              		.cfi_offset 7, -12
 675              		.cfi_offset 8, -8
 676              		.cfi_offset 14, -4
 677              		.loc 8 78 17 view .LVU158
 678 0004 4E48     		ldr	r0, .L20
 679              	.LBB228:
 680              	.LBB229:
 681              	.LBB230:
  44:../../DaisySP//Source/Utility/delayline.h ****         delay_     = 1;
 682              		.loc 7 44 20 view .LVU159
 683 0006 0024     		movs	r4, #0
 684              	.LBB231:
  42:../../DaisySP//Source/Utility/delayline.h ****         }
 685              		.loc 7 42 22 view .LVU160
 686 0008 4E4D     		ldr	r5, .L20+4
 687              	.LBE231:
 688              	.LBE230:
 689              	.LBE229:
ARM GAS  C:\Users\kgpol\AppData\Local\Temp\ccMDpFSR.s 			page 24


 690              	.LBE228:
  79:delay-module.cpp ****     hw.Init();
  80:delay-module.cpp ****     hw.SetAudioBlockSize(4);
  81:delay-module.cpp ****     sample_rate = hw.AudioSampleRate();
  82:delay-module.cpp **** 
  83:delay-module.cpp **** 	// initialize the delay lines
  84:delay-module.cpp ****     delay_l.Init();
  85:delay-module.cpp ****     delay_l.SetDelay(MAX_DELAY);
  86:delay-module.cpp ****     delay_r.Init();
  87:delay-module.cpp ****     delay_r.SetDelay(MAX_DELAY);
  88:delay-module.cpp **** 
  89:delay-module.cpp **** 	// initialize the ADC
  90:delay-module.cpp **** 	const int num_adc_channels = 4;
  91:delay-module.cpp **** 	AdcChannelConfig adcConfig[num_adc_channels];
  92:delay-module.cpp **** 	adcConfig[0].InitSingle(seed::A0);
 691              		.loc 8 92 25 view .LVU161
 692 000a 0226     		movs	r6, #2
 693              	.LBB240:
 694              	.LBB241:
  54:../../DaisySP//Source/Utility/delayline.h ****     }
 695              		.loc 7 54 16 view .LVU162
 696 000c 4BF67F37 		movw	r7, #47999
  53:../../DaisySP//Source/Utility/delayline.h ****         delay_ = delay < max_size ? delay : max_size - 1;
 697              		.loc 7 53 16 view .LVU163
 698 0010 4FF00008 		mov	r8, #0
 699              	.LBE241:
 700              	.LBE240:
  75:delay-module.cpp ****     // initialize seed hardware and daisysp modules
 701              		.loc 8 75 1 view .LVU164
 702 0014 2DED028B 		vpush.64	{d8}
 703              		.cfi_def_cfa_offset 32
 704              		.cfi_offset 80, -32
 705              		.cfi_offset 81, -28
 706 0018 96B0     		sub	sp, sp, #88
 707              		.cfi_def_cfa_offset 120
  78:delay-module.cpp ****     hw.Init();
 708              		.loc 8 78 17 view .LVU165
 709 001a FFF7FEFF 		bl	_ZN5daisy9DaisySeed9ConfigureEv
 710              	.LVL35:
  79:delay-module.cpp ****     hw.SetAudioBlockSize(4);
 711              		.loc 8 79 5 is_stmt 1 view .LVU166
  79:delay-module.cpp ****     hw.SetAudioBlockSize(4);
 712              		.loc 8 79 12 is_stmt 0 view .LVU167
 713 001e 0021     		movs	r1, #0
 714 0020 4748     		ldr	r0, .L20
 715 0022 FFF7FEFF 		bl	_ZN5daisy9DaisySeed4InitEb
 716              	.LVL36:
  80:delay-module.cpp ****     sample_rate = hw.AudioSampleRate();
 717              		.loc 8 80 5 is_stmt 1 view .LVU168
  80:delay-module.cpp ****     sample_rate = hw.AudioSampleRate();
 718              		.loc 8 80 25 is_stmt 0 view .LVU169
 719 0026 0421     		movs	r1, #4
 720 0028 4548     		ldr	r0, .L20
 721 002a FFF7FEFF 		bl	_ZN5daisy9DaisySeed17SetAudioBlockSizeEj
 722              	.LVL37:
  81:delay-module.cpp **** 
 723              		.loc 8 81 5 is_stmt 1 view .LVU170
ARM GAS  C:\Users\kgpol\AppData\Local\Temp\ccMDpFSR.s 			page 25


  81:delay-module.cpp **** 
 724              		.loc 8 81 37 is_stmt 0 view .LVU171
 725 002e 4448     		ldr	r0, .L20
 726 0030 FFF7FEFF 		bl	_ZN5daisy9DaisySeed15AudioSampleRateEv
 727              	.LVL38:
 728              	.LBB244:
 729              	.LBB237:
 730              	.LBB234:
 731              	.LBB232:
  42:../../DaisySP//Source/Utility/delayline.h ****         }
 732              		.loc 7 42 22 view .LVU172
 733 0034 444A     		ldr	r2, .L20+8
 734 0036 0021     		movs	r1, #0
 735 0038 2846     		mov	r0, r5
 736              	.LBE232:
 737              	.LBE234:
 738              	.LBE237:
 739              	.LBE244:
  81:delay-module.cpp **** 
 740              		.loc 8 81 37 view .LVU173
 741 003a B0EE408A 		vmov.f32	s16, s0
 742              	.LVL39:
  84:delay-module.cpp ****     delay_l.SetDelay(MAX_DELAY);
 743              		.loc 8 84 5 is_stmt 1 view .LVU174
 744              	.LBB245:
 745              	.LBI228:
  35:../../DaisySP//Source/Utility/delayline.h ****     /** clears buffer, sets write ptr to 0, and delay to 1 sample.
 746              		.loc 7 35 10 view .LVU175
 747              	.LBB238:
 748              	.LBI229:
  38:../../DaisySP//Source/Utility/delayline.h ****     {
 749              		.loc 7 38 10 view .LVU176
 750              	.LBB235:
 751              	.LBB233:
  40:../../DaisySP//Source/Utility/delayline.h ****         {
 752              		.loc 7 40 29 view .LVU177
  42:../../DaisySP//Source/Utility/delayline.h ****         }
 753              		.loc 7 42 22 is_stmt 0 view .LVU178
 754 003e FFF7FEFF 		bl	memset
 755              	.LVL40:
  42:../../DaisySP//Source/Utility/delayline.h ****         }
 756              		.loc 7 42 22 view .LVU179
 757              	.LBE233:
 758              	.LBE235:
 759              	.LBE238:
 760              	.LBE245:
 761              	.LBB246:
 762              	.LBB247:
 763              	.LBB248:
 764              	.LBB249:
 765 0042 424B     		ldr	r3, .L20+12
 766 0044 2146     		mov	r1, r4
 767 0046 404A     		ldr	r2, .L20+8
 768 0048 1846     		mov	r0, r3
 769              	.LBE249:
 770              	.LBE248:
 771              	.LBE247:
ARM GAS  C:\Users\kgpol\AppData\Local\Temp\ccMDpFSR.s 			page 26


 772              	.LBE246:
 773              	.LBB258:
 774              	.LBB242:
  54:../../DaisySP//Source/Utility/delayline.h ****     }
 775              		.loc 7 54 16 view .LVU180
 776 004a 45F8047C 		str	r7, [r5, #-4]
 777              	.LBE242:
 778              	.LBE258:
 779              	.LBB259:
 780              	.LBB239:
 781              	.LBB236:
  44:../../DaisySP//Source/Utility/delayline.h ****         delay_     = 1;
 782              		.loc 7 44 20 view .LVU181
 783 004e 45F8084C 		str	r4, [r5, #-8]
 784              	.LVL41:
  44:../../DaisySP//Source/Utility/delayline.h ****         delay_     = 1;
 785              		.loc 7 44 20 view .LVU182
 786              	.LBE236:
 787              	.LBE239:
 788              	.LBE259:
  85:delay-module.cpp ****     delay_r.Init();
 789              		.loc 8 85 5 is_stmt 1 view .LVU183
 790              	.LBB260:
 791              	.LBI240:
  51:../../DaisySP//Source/Utility/delayline.h ****     {
 792              		.loc 7 51 17 view .LVU184
  51:../../DaisySP//Source/Utility/delayline.h ****     {
 793              		.loc 7 51 17 is_stmt 0 view .LVU185
 794              	.LBE260:
 795              	.LBB261:
 796              	.LBB255:
 797              	.LBB252:
 798              	.LBB250:
  40:../../DaisySP//Source/Utility/delayline.h ****         {
 799              		.loc 7 40 29 is_stmt 1 view .LVU186
 800              	.LBE250:
 801              	.LBE252:
 802              	.LBE255:
 803              	.LBE261:
 804              	.LBB262:
 805              	.LBB243:
  53:../../DaisySP//Source/Utility/delayline.h ****         delay_ = delay < max_size ? delay : max_size - 1;
 806              		.loc 7 53 16 is_stmt 0 view .LVU187
 807 0052 45F80C8C 		str	r8, [r5, #-12]	@ float
 808              	.LBE243:
 809              	.LBE262:
 810              	.LBB263:
 811              	.LBB256:
 812              	.LBB253:
 813              	.LBB251:
  42:../../DaisySP//Source/Utility/delayline.h ****         }
 814              		.loc 7 42 22 view .LVU188
 815 0056 FFF7FEFF 		bl	memset
 816              	.LVL42:
  42:../../DaisySP//Source/Utility/delayline.h ****         }
 817              		.loc 7 42 22 view .LVU189
 818              	.LBE251:
ARM GAS  C:\Users\kgpol\AppData\Local\Temp\ccMDpFSR.s 			page 27


 819              	.LBE253:
 820              	.LBE256:
 821              	.LBE263:
 822              		.loc 8 92 25 view .LVU190
 823 005a 8DF80060 		strb	r6, [sp]
 824 005e 3246     		mov	r2, r6
 825 0060 8DF80140 		strb	r4, [sp, #1]
  93:delay-module.cpp ****     adcConfig[1].InitSingle(seed::A1);
  94:delay-module.cpp ****     adcConfig[2].InitSingle(seed::A2);
 826              		.loc 8 94 28 view .LVU191
 827 0064 0125     		movs	r5, #1
  92:delay-module.cpp ****     adcConfig[1].InitSingle(seed::A1);
 828              		.loc 8 92 25 view .LVU192
 829 0066 0099     		ldr	r1, [sp]
 830              	.LBB264:
 831              	.LBB265:
  53:../../DaisySP//Source/Utility/delayline.h ****         delay_ = delay < max_size ? delay : max_size - 1;
 832              		.loc 7 53 16 view .LVU193
 833 0068 40F80C8C 		str	r8, [r0, #-12]	@ float
 834              	.LBE265:
 835              	.LBE264:
 836              	.LBB266:
 837              	.LBB257:
 838              	.LBB254:
  44:../../DaisySP//Source/Utility/delayline.h ****         delay_     = 1;
 839              		.loc 7 44 20 view .LVU194
 840 006c 40E90247 		strd	r4, r7, [r0, #-8]
 841              	.LBE254:
 842              	.LBE257:
 843              	.LBE266:
  87:delay-module.cpp **** 
 844              		.loc 8 87 5 is_stmt 1 view .LVU195
 845              	.LVL43:
 846              	.LBB267:
 847              	.LBI264:
  51:../../DaisySP//Source/Utility/delayline.h ****     {
 848              		.loc 7 51 17 view .LVU196
  51:../../DaisySP//Source/Utility/delayline.h ****     {
 849              		.loc 7 51 17 is_stmt 0 view .LVU197
 850              	.LBE267:
  90:delay-module.cpp **** 	AdcChannelConfig adcConfig[num_adc_channels];
 851              		.loc 8 90 2 is_stmt 1 view .LVU198
  91:delay-module.cpp **** 	adcConfig[0].InitSingle(seed::A0);
 852              		.loc 8 91 2 view .LVU199
  92:delay-module.cpp ****     adcConfig[1].InitSingle(seed::A1);
 853              		.loc 8 92 2 view .LVU200
  93:delay-module.cpp ****     adcConfig[2].InitSingle(seed::A2);
 854              		.loc 8 93 28 is_stmt 0 view .LVU201
 855 0070 0327     		movs	r7, #3
  92:delay-module.cpp ****     adcConfig[1].InitSingle(seed::A1);
 856              		.loc 8 92 25 view .LVU202
 857 0072 04A8     		add	r0, sp, #16
 858 0074 FFF7FEFF 		bl	_ZN5daisy16AdcChannelConfig10InitSingleE12dsy_gpio_pinNS0_15ConversionSpeedE
 859              	.LVL44:
  93:delay-module.cpp ****     adcConfig[2].InitSingle(seed::A2);
 860              		.loc 8 93 5 is_stmt 1 view .LVU203
  93:delay-module.cpp ****     adcConfig[2].InitSingle(seed::A2);
ARM GAS  C:\Users\kgpol\AppData\Local\Temp\ccMDpFSR.s 			page 28


 861              		.loc 8 93 28 is_stmt 0 view .LVU204
 862 0078 8DF80440 		strb	r4, [sp, #4]
 863 007c 8DF80570 		strb	r7, [sp, #5]
 864 0080 3246     		mov	r2, r6
 865 0082 0199     		ldr	r1, [sp, #4]
 866 0084 0DF12200 		add	r0, sp, #34
 867 0088 FFF7FEFF 		bl	_ZN5daisy16AdcChannelConfig10InitSingleE12dsy_gpio_pinNS0_15ConversionSpeedE
 868              	.LVL45:
 869              		.loc 8 94 5 is_stmt 1 view .LVU205
 870              		.loc 8 94 28 is_stmt 0 view .LVU206
 871 008c 8DF80850 		strb	r5, [sp, #8]
 872 0090 8DF80950 		strb	r5, [sp, #9]
 873 0094 3246     		mov	r2, r6
 874 0096 0299     		ldr	r1, [sp, #8]
 875 0098 0DA8     		add	r0, sp, #52
 876 009a FFF7FEFF 		bl	_ZN5daisy16AdcChannelConfig10InitSingleE12dsy_gpio_pinNS0_15ConversionSpeedE
 877              	.LVL46:
  95:delay-module.cpp ****     adcConfig[3].InitSingle(seed::A3);
 878              		.loc 8 95 5 is_stmt 1 view .LVU207
 879              		.loc 8 95 28 is_stmt 0 view .LVU208
 880 009e 0723     		movs	r3, #7
 881 00a0 8DF80C40 		strb	r4, [sp, #12]
 882 00a4 3246     		mov	r2, r6
 883 00a6 8DF80D30 		strb	r3, [sp, #13]
 884 00aa 0DF14600 		add	r0, sp, #70
 885 00ae 0399     		ldr	r1, [sp, #12]
 886 00b0 FFF7FEFF 		bl	_ZN5daisy16AdcChannelConfig10InitSingleE12dsy_gpio_pinNS0_15ConversionSpeedE
 887              	.LVL47:
  96:delay-module.cpp **** 	hw.adc.Init(adcConfig, num_adc_channels);
 888              		.loc 8 96 2 is_stmt 1 view .LVU209
 889              		.loc 8 96 13 is_stmt 0 view .LVU210
 890 00b4 0423     		movs	r3, #4
 891 00b6 04A9     		add	r1, sp, #16
 892 00b8 2548     		ldr	r0, .L20+16
 893 00ba 1A46     		mov	r2, r3
 894 00bc FFF7FEFF 		bl	_ZN5daisy9AdcHandle4InitEPNS_16AdcChannelConfigEjNS0_12OverSamplingE
 895              	.LVL48:
  97:delay-module.cpp **** 	hw.adc.Start();
 896              		.loc 8 97 2 is_stmt 1 view .LVU211
 897              		.loc 8 97 14 is_stmt 0 view .LVU212
 898 00c0 2348     		ldr	r0, .L20+16
 899 00c2 FFF7FEFF 		bl	_ZN5daisy9AdcHandle5StartEv
 900              	.LVL49:
  98:delay-module.cpp **** 
  99:delay-module.cpp **** 	// initialize the AnalogControls
 100:delay-module.cpp **** 	cv_0.Init(hw.adc.GetPtr(0), sample_rate, true, false, 0.01f);
 901              		.loc 8 100 2 is_stmt 1 view .LVU213
 902              		.loc 8 100 11 is_stmt 0 view .LVU214
 903 00c6 2146     		mov	r1, r4
 904 00c8 2148     		ldr	r0, .L20+16
 905 00ca FFF7FEFF 		bl	_ZNK5daisy9AdcHandle6GetPtrEh
 906              	.LVL50:
 907 00ce B0EE480A 		vmov.f32	s0, s16
 908 00d2 0146     		mov	r1, r0
 909 00d4 DFED1F0A 		vldr.32	s1, .L20+20
 910 00d8 2346     		mov	r3, r4
 911 00da 2A46     		mov	r2, r5
ARM GAS  C:\Users\kgpol\AppData\Local\Temp\ccMDpFSR.s 			page 29


 912 00dc 1E48     		ldr	r0, .L20+24
 913 00de FFF7FEFF 		bl	_ZN5daisy13AnalogControl4InitEPtfbbf
 914              	.LVL51:
 101:delay-module.cpp ****     cv_1.Init(hw.adc.GetPtr(1), sample_rate, true, false, 0.01f);
 915              		.loc 8 101 5 is_stmt 1 view .LVU215
 916              		.loc 8 101 14 is_stmt 0 view .LVU216
 917 00e2 2946     		mov	r1, r5
 918 00e4 1A48     		ldr	r0, .L20+16
 919 00e6 FFF7FEFF 		bl	_ZNK5daisy9AdcHandle6GetPtrEh
 920              	.LVL52:
 921 00ea B0EE480A 		vmov.f32	s0, s16
 922 00ee 0146     		mov	r1, r0
 923 00f0 DFED180A 		vldr.32	s1, .L20+20
 924 00f4 2346     		mov	r3, r4
 925 00f6 2A46     		mov	r2, r5
 926 00f8 1848     		ldr	r0, .L20+28
 927 00fa FFF7FEFF 		bl	_ZN5daisy13AnalogControl4InitEPtfbbf
 928              	.LVL53:
 102:delay-module.cpp ****     cv_2.Init(hw.adc.GetPtr(2), sample_rate, true, false, 0.01f);
 929              		.loc 8 102 5 is_stmt 1 view .LVU217
 930              		.loc 8 102 14 is_stmt 0 view .LVU218
 931 00fe 3146     		mov	r1, r6
 932 0100 1348     		ldr	r0, .L20+16
 933 0102 FFF7FEFF 		bl	_ZNK5daisy9AdcHandle6GetPtrEh
 934              	.LVL54:
 935 0106 B0EE480A 		vmov.f32	s0, s16
 936 010a 0146     		mov	r1, r0
 937 010c DFED110A 		vldr.32	s1, .L20+20
 938 0110 2346     		mov	r3, r4
 939 0112 2A46     		mov	r2, r5
 940 0114 1248     		ldr	r0, .L20+32
 941 0116 FFF7FEFF 		bl	_ZN5daisy13AnalogControl4InitEPtfbbf
 942              	.LVL55:
 103:delay-module.cpp ****     cv_3.Init(hw.adc.GetPtr(3), sample_rate, true, false, 0.01f);
 943              		.loc 8 103 5 is_stmt 1 view .LVU219
 944              		.loc 8 103 14 is_stmt 0 view .LVU220
 945 011a 3946     		mov	r1, r7
 946 011c 0C48     		ldr	r0, .L20+16
 947 011e FFF7FEFF 		bl	_ZNK5daisy9AdcHandle6GetPtrEh
 948              	.LVL56:
 949 0122 B0EE480A 		vmov.f32	s0, s16
 950 0126 0146     		mov	r1, r0
 951 0128 DFED0A0A 		vldr.32	s1, .L20+20
 952 012c 0D48     		ldr	r0, .L20+36
 953 012e 2346     		mov	r3, r4
 954 0130 2A46     		mov	r2, r5
 955 0132 FFF7FEFF 		bl	_ZN5daisy13AnalogControl4InitEPtfbbf
 956              	.LVL57:
 104:delay-module.cpp **** 
 105:delay-module.cpp ****     // start callback
 106:delay-module.cpp ****     hw.StartAudio(AudioCallback);
 957              		.loc 8 106 5 is_stmt 1 view .LVU221
 958              		.loc 8 106 18 is_stmt 0 view .LVU222
 959 0136 0C49     		ldr	r1, .L20+40
 960 0138 0148     		ldr	r0, .L20
 961 013a FFF7FEFF 		bl	_ZN5daisy9DaisySeed10StartAudioEPFvPKfPfjE
 962              	.LVL58:
ARM GAS  C:\Users\kgpol\AppData\Local\Temp\ccMDpFSR.s 			page 30


 963              	.L18:
 107:delay-module.cpp **** 
 108:delay-module.cpp ****     while(1) {
 964              		.loc 8 108 5 is_stmt 1 discriminator 1 view .LVU223
 965              		.loc 8 108 5 discriminator 1 view .LVU224
 966              		.loc 8 108 5 discriminator 1 view .LVU225
 967              		.loc 8 108 5 discriminator 1 view .LVU226
 968 013e FEE7     		b	.L18
 969              	.L21:
 970              		.align	2
 971              	.L20:
 972 0140 00000000 		.word	.LANCHOR4
 973 0144 0C000000 		.word	_ZL7delay_l+12
 974 0148 00EE0200 		.word	192000
 975 014c 0C000000 		.word	_ZL7delay_r+12
 976 0150 18000000 		.word	.LANCHOR4+24
 977 0154 0AD7233C 		.word	1008981770
 978 0158 00000000 		.word	.LANCHOR0
 979 015c 00000000 		.word	.LANCHOR1
 980 0160 00000000 		.word	.LANCHOR2
 981 0164 00000000 		.word	.LANCHOR3
 982 0168 00000000 		.word	_ZL13AudioCallbackPKfPfj
 983              		.cfi_endproc
 984              	.LFE4682:
 986              		.section	.text.startup._GLOBAL__sub_I_cv_0,"ax",%progbits
 987              		.align	1
 988              		.p2align 2,,3
 989              		.syntax unified
 990              		.thumb
 991              		.thumb_func
 992              		.fpu fpv5-d16
 994              	_GLOBAL__sub_I_cv_0:
 995              	.LFB5257:
 109:delay-module.cpp **** 		
 110:delay-module.cpp **** 	}
 111:delay-module.cpp **** }
 996              		.loc 8 111 1 view -0
 997              		.cfi_startproc
 998              		@ args = 0, pretend = 0, frame = 0
 999              		@ frame_needed = 0, uses_anonymous_args = 0
 1000              	.LBB301:
 1001              	.LBI301:
 1002              		.loc 8 111 1 view .LVU228
 1003              	.LVL59:
 1004              	.LBB302:
 1005              	.LBB303:
 1006              	.LBI303:
  21:../../libDaisy//src/daisy_seed.h ****     ~DaisySeed() {}
 1007              		.loc 2 21 5 view .LVU229
 1008              	.LBB304:
 1009              	.LBB305:
 1010              	.LBI305:
 1011              		.file 9 "../../libDaisy//src/per/qspi.h"
   1:../../libDaisy//src/per/qspi.h **** #ifndef DSY_QSPI
   2:../../libDaisy//src/per/qspi.h **** #define DSY_QSPI /**< Macro */
   3:../../libDaisy//src/per/qspi.h **** 
   4:../../libDaisy//src/per/qspi.h **** #ifndef UNIT_TEST // for unit tests, a dummy implementation
ARM GAS  C:\Users\kgpol\AppData\Local\Temp\ccMDpFSR.s 			page 31


   5:../../libDaisy//src/per/qspi.h **** 
   6:../../libDaisy//src/per/qspi.h **** #include <cstdint>
   7:../../libDaisy//src/per/qspi.h **** #include "daisy_core.h" // Added for dsy_gpio_pin typedef
   8:../../libDaisy//src/per/qspi.h **** 
   9:../../libDaisy//src/per/qspi.h **** #define DSY_QSPI_TEXT       \
  10:../../libDaisy//src/per/qspi.h ****     __attribute__((section( \
  11:../../libDaisy//src/per/qspi.h ****         ".qspiflash_text"))) /**< used for reading memory in memory_mapped mode. */
  12:../../libDaisy//src/per/qspi.h **** #define DSY_QSPI_DATA       \
  13:../../libDaisy//src/per/qspi.h ****     __attribute__((section( \
  14:../../libDaisy//src/per/qspi.h ****         ".qspiflash_data"))) /**< used for reading memory in memory_mapped mode. */
  15:../../libDaisy//src/per/qspi.h **** #define DSY_QSPI_BSS        \
  16:../../libDaisy//src/per/qspi.h ****     __attribute__((section( \
  17:../../libDaisy//src/per/qspi.h ****         ".qspiflash_bss"))) /**< used for reading memory in memory_mapped mode. */
  18:../../libDaisy//src/per/qspi.h **** 
  19:../../libDaisy//src/per/qspi.h **** namespace daisy
  20:../../libDaisy//src/per/qspi.h **** {
  21:../../libDaisy//src/per/qspi.h **** /** @addtogroup serial
  22:../../libDaisy//src/per/qspi.h **** @{
  23:../../libDaisy//src/per/qspi.h **** */
  24:../../libDaisy//src/per/qspi.h **** 
  25:../../libDaisy//src/per/qspi.h **** /** 
  26:../../libDaisy//src/per/qspi.h ****  Driver for QSPI peripheral to interface with external flash memory. \n 
  27:../../libDaisy//src/per/qspi.h ****     Currently supported QSPI Devices: \n 
  28:../../libDaisy//src/per/qspi.h ****     * IS25LP080D
  29:../../libDaisy//src/per/qspi.h **** */
  30:../../libDaisy//src/per/qspi.h **** class QSPIHandle
  31:../../libDaisy//src/per/qspi.h **** {
  32:../../libDaisy//src/per/qspi.h ****   public:
  33:../../libDaisy//src/per/qspi.h ****     enum Result
  34:../../libDaisy//src/per/qspi.h ****     {
  35:../../libDaisy//src/per/qspi.h ****         OK = 0,
  36:../../libDaisy//src/per/qspi.h ****         ERR
  37:../../libDaisy//src/per/qspi.h ****     };
  38:../../libDaisy//src/per/qspi.h **** 
  39:../../libDaisy//src/per/qspi.h ****     /** Indicates the current status of the module. 
  40:../../libDaisy//src/per/qspi.h ****          *  Warnings are indicated by a leading W.
  41:../../libDaisy//src/per/qspi.h ****          *  Errors are indicated by a leading E and cause an immediate exit.
  42:../../libDaisy//src/per/qspi.h ****          * 
  43:../../libDaisy//src/per/qspi.h ****          *  \param GOOD - No errors have been reported.
  44:../../libDaisy//src/per/qspi.h ****          *  \param E_HAL_ERROR - HAL code did not return HAL_OK.
  45:../../libDaisy//src/per/qspi.h ****          *  \param E_SWITCHING_MODES - An error was encountered while switching QSPI peripheral mod
  46:../../libDaisy//src/per/qspi.h ****          *  \param E_INVALID_MODE - QSPI should not be written to while the program is executing fr
  47:../../libDaisy//src/per/qspi.h ****          */
  48:../../libDaisy//src/per/qspi.h ****     enum Status
  49:../../libDaisy//src/per/qspi.h ****     {
  50:../../libDaisy//src/per/qspi.h ****         GOOD = 0,
  51:../../libDaisy//src/per/qspi.h ****         E_HAL_ERROR,
  52:../../libDaisy//src/per/qspi.h ****         E_SWITCHING_MODES,
  53:../../libDaisy//src/per/qspi.h ****         E_INVALID_MODE,
  54:../../libDaisy//src/per/qspi.h ****     };
  55:../../libDaisy//src/per/qspi.h **** 
  56:../../libDaisy//src/per/qspi.h ****     /** Configuration structure for interfacing with QSPI Driver */
  57:../../libDaisy//src/per/qspi.h ****     struct Config
  58:../../libDaisy//src/per/qspi.h ****     {
  59:../../libDaisy//src/per/qspi.h ****         /** Flash Devices supported. (Both of these are more-or-less the same, just different sizes
  60:../../libDaisy//src/per/qspi.h ****         enum Device
  61:../../libDaisy//src/per/qspi.h ****         {
ARM GAS  C:\Users\kgpol\AppData\Local\Temp\ccMDpFSR.s 			page 32


  62:../../libDaisy//src/per/qspi.h ****             IS25LP080D,  /**< & */
  63:../../libDaisy//src/per/qspi.h ****             IS25LP064A,  /**< & */
  64:../../libDaisy//src/per/qspi.h ****             DEVICE_LAST, /**< & */
  65:../../libDaisy//src/per/qspi.h ****         };
  66:../../libDaisy//src/per/qspi.h **** 
  67:../../libDaisy//src/per/qspi.h ****         /** 
  68:../../libDaisy//src/per/qspi.h ****         Modes of operation.
  69:../../libDaisy//src/per/qspi.h ****         Memory Mapped mode: QSPI configured so that the QSPI can be
  70:../../libDaisy//src/per/qspi.h ****         read from starting address 0x90000000. Writing is not
  71:../../libDaisy//src/per/qspi.h ****         possible in this mode. \n 
  72:../../libDaisy//src/per/qspi.h ****         Indirect Polling mode: Device driver enabled. 
  73:../../libDaisy//src/per/qspi.h ****         */
  74:../../libDaisy//src/per/qspi.h ****         enum Mode
  75:../../libDaisy//src/per/qspi.h ****         {
  76:../../libDaisy//src/per/qspi.h ****             MEMORY_MAPPED,    /**< & */
  77:../../libDaisy//src/per/qspi.h ****             INDIRECT_POLLING, /**< & */
  78:../../libDaisy//src/per/qspi.h ****             MODE_LAST,
  79:../../libDaisy//src/per/qspi.h ****         };
  80:../../libDaisy//src/per/qspi.h **** 
  81:../../libDaisy//src/per/qspi.h ****         //SCK,  CE# (active low)
  82:../../libDaisy//src/per/qspi.h ****         struct
  83:../../libDaisy//src/per/qspi.h ****         {
  84:../../libDaisy//src/per/qspi.h ****             dsy_gpio_pin io0; /**< & */
  85:../../libDaisy//src/per/qspi.h ****             dsy_gpio_pin io1; /**< & */
  86:../../libDaisy//src/per/qspi.h ****             dsy_gpio_pin io2; /**< & */
  87:../../libDaisy//src/per/qspi.h ****             dsy_gpio_pin io3; /**< & */
  88:../../libDaisy//src/per/qspi.h ****             dsy_gpio_pin clk; /**< & */
  89:../../libDaisy//src/per/qspi.h ****             dsy_gpio_pin ncs; /**< & */
  90:../../libDaisy//src/per/qspi.h ****         } pin_config;
  91:../../libDaisy//src/per/qspi.h **** 
  92:../../libDaisy//src/per/qspi.h ****         Device device;
  93:../../libDaisy//src/per/qspi.h ****         Mode   mode;
  94:../../libDaisy//src/per/qspi.h ****     };
  95:../../libDaisy//src/per/qspi.h **** 
  96:../../libDaisy//src/per/qspi.h ****     /** 
  97:../../libDaisy//src/per/qspi.h ****         Initializes QSPI peripheral, and Resets, and prepares memory for access.
  98:../../libDaisy//src/per/qspi.h ****         \param config should be populated with the mode, device and pin_config before calling this 
  99:../../libDaisy//src/per/qspi.h ****         \return Result::OK or Result::ERR
 100:../../libDaisy//src/per/qspi.h ****         */
 101:../../libDaisy//src/per/qspi.h ****     Result Init(const Config& config);
 102:../../libDaisy//src/per/qspi.h **** 
 103:../../libDaisy//src/per/qspi.h ****     /** Returns the current config. */
 104:../../libDaisy//src/per/qspi.h ****     const Config& GetConfig() const;
 105:../../libDaisy//src/per/qspi.h **** 
 106:../../libDaisy//src/per/qspi.h ****     // Couldn't this just be called before anything else in init? That
 107:../../libDaisy//src/per/qspi.h ****     // would make manually calling it unnecessary.
 108:../../libDaisy//src/per/qspi.h ****     /** 
 109:../../libDaisy//src/per/qspi.h ****         Deinitializes the peripheral
 110:../../libDaisy//src/per/qspi.h ****         This should be called before reinitializing QSPI in a different mode.
 111:../../libDaisy//src/per/qspi.h ****         \return Result::OK or Result::ERR
 112:../../libDaisy//src/per/qspi.h ****         */
 113:../../libDaisy//src/per/qspi.h ****     Result DeInit();
 114:../../libDaisy//src/per/qspi.h **** 
 115:../../libDaisy//src/per/qspi.h ****     /** 
 116:../../libDaisy//src/per/qspi.h ****         Writes a single page to to the specified address on the QSPI chip.
 117:../../libDaisy//src/per/qspi.h ****         For IS25LP*, page size is 256 bytes.
 118:../../libDaisy//src/per/qspi.h ****         \param address Address to write to
ARM GAS  C:\Users\kgpol\AppData\Local\Temp\ccMDpFSR.s 			page 33


 119:../../libDaisy//src/per/qspi.h ****         \param size Buffer size
 120:../../libDaisy//src/per/qspi.h ****         \param buffer Buffer to write
 121:../../libDaisy//src/per/qspi.h ****         \return Result::OK or Result::ERR
 122:../../libDaisy//src/per/qspi.h ****         */
 123:../../libDaisy//src/per/qspi.h ****     Result WritePage(uint32_t address, uint32_t size, uint8_t* buffer);
 124:../../libDaisy//src/per/qspi.h **** 
 125:../../libDaisy//src/per/qspi.h ****     /** 
 126:../../libDaisy//src/per/qspi.h ****         Writes data in buffer to to the QSPI. Starting at address to address+size 
 127:../../libDaisy//src/per/qspi.h ****         \param address Address to write to
 128:../../libDaisy//src/per/qspi.h ****         \param size Buffer size
 129:../../libDaisy//src/per/qspi.h ****         \param buffer Buffer to write
 130:../../libDaisy//src/per/qspi.h ****         \return Result::OK or Result::ERR
 131:../../libDaisy//src/per/qspi.h ****         */
 132:../../libDaisy//src/per/qspi.h ****     Result Write(uint32_t address, uint32_t size, uint8_t* buffer);
 133:../../libDaisy//src/per/qspi.h **** 
 134:../../libDaisy//src/per/qspi.h ****     /** 
 135:../../libDaisy//src/per/qspi.h ****         Erases the area specified on the chip.
 136:../../libDaisy//src/per/qspi.h ****         Erasures will happen by 4K, 32K or 64K increments.
 137:../../libDaisy//src/per/qspi.h ****         Smallest erase possible is 4kB at a time. (on IS25LP*)
 138:../../libDaisy//src/per/qspi.h ****         \param start_addr Address to begin erasing from
 139:../../libDaisy//src/per/qspi.h ****         \param end_addr  Address to stop erasing at
 140:../../libDaisy//src/per/qspi.h ****         \return Result::OK or Result::ERR
 141:../../libDaisy//src/per/qspi.h ****         */
 142:../../libDaisy//src/per/qspi.h ****     Result Erase(uint32_t start_addr, uint32_t end_addr);
 143:../../libDaisy//src/per/qspi.h **** 
 144:../../libDaisy//src/per/qspi.h ****     /**  
 145:../../libDaisy//src/per/qspi.h ****          Erases a single sector of the chip.  
 146:../../libDaisy//src/per/qspi.h ****         TODO: Document the size of this function. 
 147:../../libDaisy//src/per/qspi.h ****         \param address Address of sector to erase
 148:../../libDaisy//src/per/qspi.h ****         \return Result::OK or Result::ERR
 149:../../libDaisy//src/per/qspi.h ****         */
 150:../../libDaisy//src/per/qspi.h ****     Result EraseSector(uint32_t address);
 151:../../libDaisy//src/per/qspi.h **** 
 152:../../libDaisy//src/per/qspi.h ****     /** Returns the current class status. Useful for debugging.
 153:../../libDaisy//src/per/qspi.h ****      *  \returns Status
 154:../../libDaisy//src/per/qspi.h ****      */
 155:../../libDaisy//src/per/qspi.h ****     Status GetStatus();
 156:../../libDaisy//src/per/qspi.h **** 
 157:../../libDaisy//src/per/qspi.h ****     /** Returns a pointer to the actual memory used 
 158:../../libDaisy//src/per/qspi.h ****      *  The memory at this address is read-only
 159:../../libDaisy//src/per/qspi.h ****      *  to write to it use the Write function.
 160:../../libDaisy//src/per/qspi.h ****      * 
 161:../../libDaisy//src/per/qspi.h ****      *  \param offset returns the pointer starting this 
 162:../../libDaisy//src/per/qspi.h ****      *                many bytes into the memory
 163:../../libDaisy//src/per/qspi.h ****     */
 164:../../libDaisy//src/per/qspi.h ****     void* GetData(uint32_t offset = 0);
 165:../../libDaisy//src/per/qspi.h **** 
 166:../../libDaisy//src/per/qspi.h ****     QSPIHandle() : pimpl_(nullptr) {}
 1012              		.loc 9 166 5 view .LVU230
 1013              	.LBB306:
 1014              	.LBB307:
 1015              		.loc 9 166 34 is_stmt 0 view .LVU231
 1016 0000 0023     		movs	r3, #0
 1017 0002 1548     		ldr	r0, .L24
 1018              	.LBE307:
 1019              	.LBE306:
 1020              	.LBE305:
ARM GAS  C:\Users\kgpol\AppData\Local\Temp\ccMDpFSR.s 			page 34


 1021              	.LBE304:
 1022              	.LBE303:
  19:delay-module.cpp **** AnalogControl cv_0, cv_1, cv_2, cv_3;
 1023              		.loc 8 19 18 view .LVU232
 1024 0004 154A     		ldr	r2, .L24+4
 1025 0006 1649     		ldr	r1, .L24+8
 1026              	.LBE302:
 1027              	.LBE301:
 1028              		.loc 8 111 1 view .LVU233
 1029 0008 10B5     		push	{r4, lr}
 1030              		.cfi_def_cfa_offset 8
 1031              		.cfi_offset 4, -8
 1032              		.cfi_offset 14, -4
 1033              	.LBB333:
 1034              	.LBB331:
 1035              	.LBB324:
 1036              	.LBB323:
 1037              	.LBB310:
 1038              	.LBB309:
 1039              	.LBB308:
 1040              		.loc 9 166 34 view .LVU234
 1041 000a 0360     		str	r3, [r0]
 1042              	.LVL60:
 1043              		.loc 9 166 34 view .LVU235
 1044              	.LBE308:
 1045              	.LBE309:
 1046              	.LBE310:
 1047              	.LBB311:
 1048              	.LBI311:
  95:../../libDaisy//src/hid/audio.h ****     ~AudioHandle() {}
 1049              		.loc 6 95 5 is_stmt 1 view .LVU236
 1050              	.LBB312:
 1051              	.LBB313:
  95:../../libDaisy//src/hid/audio.h ****     ~AudioHandle() {}
 1052              		.loc 6 95 35 is_stmt 0 view .LVU237
 1053 000c 4361     		str	r3, [r0, #20]
 1054              	.LVL61:
  95:../../libDaisy//src/hid/audio.h ****     ~AudioHandle() {}
 1055              		.loc 6 95 35 view .LVU238
 1056              	.LBE313:
 1057              	.LBE312:
 1058              	.LBE311:
 1059              	.LBB314:
 1060              	.LBI314:
 109:../../libDaisy//src/per/adc.h ****     ~AdcHandle() {}
 1061              		.loc 5 109 5 is_stmt 1 view .LVU239
 109:../../libDaisy//src/per/adc.h ****     ~AdcHandle() {}
 1062              		.loc 5 109 5 is_stmt 0 view .LVU240
 1063              	.LBE314:
 1064              	.LBB315:
 1065              	.LBI315:
 1066              		.file 10 "../../libDaisy//src/per/dac.h"
   1:../../libDaisy//src/per/dac.h **** #pragma once
   2:../../libDaisy//src/per/dac.h **** #ifndef DSY_DAC_H
   3:../../libDaisy//src/per/dac.h **** #define DSY_DAC_H
   4:../../libDaisy//src/per/dac.h **** 
   5:../../libDaisy//src/per/dac.h **** #include "daisy_core.h"
ARM GAS  C:\Users\kgpol\AppData\Local\Temp\ccMDpFSR.s 			page 35


   6:../../libDaisy//src/per/dac.h **** 
   7:../../libDaisy//src/per/dac.h **** namespace daisy
   8:../../libDaisy//src/per/dac.h **** {
   9:../../libDaisy//src/per/dac.h **** /** @brief DAC handle for Built-in DAC Peripheral 
  10:../../libDaisy//src/per/dac.h ****  *  @ingroup per_analog
  11:../../libDaisy//src/per/dac.h ****  ** 
  12:../../libDaisy//src/per/dac.h ****  ** For now only Normal Mode is supported,
  13:../../libDaisy//src/per/dac.h ****  ** Sample and hold mode provides reduced power consumption, but requires a bit more setup.
  14:../../libDaisy//src/per/dac.h ****  **
  15:../../libDaisy//src/per/dac.h ****  ** For now connecting the DAC through other internal peripherals is also not supported.
  16:../../libDaisy//src/per/dac.h ****  **
  17:../../libDaisy//src/per/dac.h ****  ** Since the DAC channels have dedicated pins we don't need to pass in a pin config like with
  18:../../libDaisy//src/per/dac.h ****  ** other modules. However, it is still important to not try to use the DAC pins for anything else.
  19:../../libDaisy//src/per/dac.h ****  ** DAC Channel 1 is on PA4, and DAC Channel 2 is on PA5
  20:../../libDaisy//src/per/dac.h ****  ***/
  21:../../libDaisy//src/per/dac.h **** class DacHandle
  22:../../libDaisy//src/per/dac.h **** {
  23:../../libDaisy//src/per/dac.h ****   public:
  24:../../libDaisy//src/per/dac.h ****     /** Return Values for the DacHandle class */
  25:../../libDaisy//src/per/dac.h ****     enum class Result
  26:../../libDaisy//src/per/dac.h ****     {
  27:../../libDaisy//src/per/dac.h ****         OK,
  28:../../libDaisy//src/per/dac.h ****         ERR,
  29:../../libDaisy//src/per/dac.h ****     };
  30:../../libDaisy//src/per/dac.h **** 
  31:../../libDaisy//src/per/dac.h ****     /** Selects which channel(s) will be configured for use. */
  32:../../libDaisy//src/per/dac.h ****     enum class Channel
  33:../../libDaisy//src/per/dac.h ****     {
  34:../../libDaisy//src/per/dac.h ****         ONE,
  35:../../libDaisy//src/per/dac.h ****         TWO,
  36:../../libDaisy//src/per/dac.h ****         BOTH,
  37:../../libDaisy//src/per/dac.h ****     };
  38:../../libDaisy//src/per/dac.h **** 
  39:../../libDaisy//src/per/dac.h ****     /** Sets the Mode for the DAC channels.
  40:../../libDaisy//src/per/dac.h ****      **
  41:../../libDaisy//src/per/dac.h ****      ** Polling mode uses the blocking mode to transmit a single value at a time.
  42:../../libDaisy//src/per/dac.h ****      **
  43:../../libDaisy//src/per/dac.h ****      ** DMA mode uses a buffer, and periodically transmits it triggering a 
  44:../../libDaisy//src/per/dac.h ****      ** callback to fill the buffer when it is ready for more samples.
  45:../../libDaisy//src/per/dac.h ****      ***/
  46:../../libDaisy//src/per/dac.h ****     enum class Mode
  47:../../libDaisy//src/per/dac.h ****     {
  48:../../libDaisy//src/per/dac.h ****         POLLING,
  49:../../libDaisy//src/per/dac.h ****         DMA,
  50:../../libDaisy//src/per/dac.h ****     };
  51:../../libDaisy//src/per/dac.h **** 
  52:../../libDaisy//src/per/dac.h ****     /** Sets the number of bits per sample transmitted out of the DAC.
  53:../../libDaisy//src/per/dac.h ****      ** The output range will be: 0V - VDDA
  54:../../libDaisy//src/per/dac.h ****      ** The resolution will be roughly: bitdepth / (VDDA - 0V) 
  55:../../libDaisy//src/per/dac.h ****      ***/
  56:../../libDaisy//src/per/dac.h ****     enum class BitDepth
  57:../../libDaisy//src/per/dac.h ****     {
  58:../../libDaisy//src/per/dac.h ****         BITS_8,
  59:../../libDaisy//src/per/dac.h ****         BITS_12
  60:../../libDaisy//src/per/dac.h ****     };
  61:../../libDaisy//src/per/dac.h **** 
  62:../../libDaisy//src/per/dac.h ****     /** Sets whether the DAC output is buffered for higher drive ability. */
ARM GAS  C:\Users\kgpol\AppData\Local\Temp\ccMDpFSR.s 			page 36


  63:../../libDaisy//src/per/dac.h ****     enum class BufferState
  64:../../libDaisy//src/per/dac.h ****     {
  65:../../libDaisy//src/per/dac.h ****         ENABLED,
  66:../../libDaisy//src/per/dac.h ****         DISABLED,
  67:../../libDaisy//src/per/dac.h ****     };
  68:../../libDaisy//src/per/dac.h **** 
  69:../../libDaisy//src/per/dac.h ****     /** Configuration structure for initializing the DAC structure. */
  70:../../libDaisy//src/per/dac.h ****     struct Config
  71:../../libDaisy//src/per/dac.h ****     {
  72:../../libDaisy//src/per/dac.h ****         /** Target Samplerate in Hz used to configure the internal 
  73:../../libDaisy//src/per/dac.h ****          ** timebase for DMA mode. Does nothing in POLLING mode.
  74:../../libDaisy//src/per/dac.h ****          ** If the value is 0 at Init time this will default to 48000Hz 
  75:../../libDaisy//src/per/dac.h ****          ** otherwise the driver will attempt meet the target.*/
  76:../../libDaisy//src/per/dac.h ****         uint32_t target_samplerate;
  77:../../libDaisy//src/per/dac.h **** 
  78:../../libDaisy//src/per/dac.h ****         Channel     chn;
  79:../../libDaisy//src/per/dac.h ****         Mode        mode;
  80:../../libDaisy//src/per/dac.h ****         BitDepth    bitdepth;
  81:../../libDaisy//src/per/dac.h ****         BufferState buff_state;
  82:../../libDaisy//src/per/dac.h ****     };
  83:../../libDaisy//src/per/dac.h **** 
  84:../../libDaisy//src/per/dac.h ****     DacHandle() : pimpl_(nullptr) {}
 1067              		.loc 10 84 5 is_stmt 1 view .LVU241
 1068              	.LBB316:
 1069              	.LBB317:
 1070              		.loc 10 84 33 is_stmt 0 view .LVU242
 1071 000e 0362     		str	r3, [r0, #32]
 1072              	.LVL62:
 1073              		.loc 10 84 33 view .LVU243
 1074              	.LBE317:
 1075              	.LBE316:
 1076              	.LBE315:
 1077              	.LBB318:
 1078              	.LBI318:
  40:../../libDaisy//src/hid/usb.h **** 
 1079              		.loc 4 40 5 is_stmt 1 view .LVU244
  40:../../libDaisy//src/hid/usb.h **** 
 1080              		.loc 4 40 5 is_stmt 0 view .LVU245
 1081              	.LBE318:
 1082              	.LBB319:
 1083              	.LBI319:
  96:../../libDaisy//src/sys/system.h ****     ~System() {}
 1084              		.loc 3 96 5 is_stmt 1 view .LVU246
  96:../../libDaisy//src/sys/system.h ****     ~System() {}
 1085              		.loc 3 96 5 is_stmt 0 view .LVU247
 1086              	.LBE319:
 1087              	.LBB320:
 1088              	.LBI320:
 1089              		.file 11 "../../libDaisy//src/per/sai.h"
   1:../../libDaisy//src/per/sai.h **** #pragma once
   2:../../libDaisy//src/per/sai.h **** #ifndef DSY_SAI_H
   3:../../libDaisy//src/per/sai.h **** #define DSY_SAI_H
   4:../../libDaisy//src/per/sai.h **** 
   5:../../libDaisy//src/per/sai.h **** #include "daisy_core.h"
   6:../../libDaisy//src/per/sai.h **** 
   7:../../libDaisy//src/per/sai.h **** namespace daisy
   8:../../libDaisy//src/per/sai.h **** {
ARM GAS  C:\Users\kgpol\AppData\Local\Temp\ccMDpFSR.s 			page 37


   9:../../libDaisy//src/per/sai.h **** /** 
  10:../../libDaisy//src/per/sai.h ****  * Support for I2S Audio Protocol with different bit-depth, samplerate options
  11:../../libDaisy//src/per/sai.h ****  * Allows for master or slave, as well as freedom of selecting direction, 
  12:../../libDaisy//src/per/sai.h ****  * and other behavior for each peripheral, and block.
  13:../../libDaisy//src/per/sai.h ****  * 
  14:../../libDaisy//src/per/sai.h ****  * DMA Transfer commands must use buffers located within non-cached memory or use cache maintenance
  15:../../libDaisy//src/per/sai.h ****  * To declare an unitialized global element in the DMA memory section:
  16:../../libDaisy//src/per/sai.h ****  *    int32_t DSY_DMA_BUFFER_SECTOR my_buffer[96];
  17:../../libDaisy//src/per/sai.h ****  *
  18:../../libDaisy//src/per/sai.h ****  * Callback functions will be called once per half of the buffer. In the above example, 
  19:../../libDaisy//src/per/sai.h ****  * the callback function would be called once for every 48 samples.
  20:../../libDaisy//src/per/sai.h ****  * 
  21:../../libDaisy//src/per/sai.h ****  * Use SAI Handle like this:
  22:../../libDaisy//src/per/sai.h ****  * 
  23:../../libDaisy//src/per/sai.h ****  *  SaiHandle::Config sai_config;
  24:../../libDaisy//src/per/sai.h ****  *  sai_config.periph          = SaiHandle::Config::Peripheral::SAI_1;
  25:../../libDaisy//src/per/sai.h ****  *  sai_config.sr              = SaiHandle::Config::SampleRate::SAI_48KHZ;
  26:../../libDaisy//src/per/sai.h ****  *  sai_config.bit_depth       = SaiHandle::Config::BitDepth::SAI_24BIT;
  27:../../libDaisy//src/per/sai.h ****  *  sai_config.a_sync          = SaiHandle::Config::Sync::MASTER;
  28:../../libDaisy//src/per/sai.h ****  *  sai_config.b_sync          = SaiHandle::Config::Sync::SLAVE;
  29:../../libDaisy//src/per/sai.h ****  *  sai_config.a_dir           = SaiHandle::Config::Direction::RECEIVE;
  30:../../libDaisy//src/per/sai.h ****  *  sai_config.b_dir           = SaiHandle::Config::Direction::TRANSMIT;
  31:../../libDaisy//src/per/sai.h ****  *  sai_config.pin_config.fs   = {DSY_GPIOE, 4};
  32:../../libDaisy//src/per/sai.h ****  *  sai_config.pin_config.mclk = {DSY_GPIOE, 2};
  33:../../libDaisy//src/per/sai.h ****  *  sai_config.pin_config.sck  = {DSY_GPIOE, 5};
  34:../../libDaisy//src/per/sai.h ****  *  sai_config.pin_config.sa   = {DSY_GPIOE, 6};
  35:../../libDaisy//src/per/sai.h ****  *  sai_config.pin_config.sb   = {DSY_GPIOE, 3};
  36:../../libDaisy//src/per/sai.h ****  *  // Then Initialize
  37:../../libDaisy//src/per/sai.h ****  *  SaiHandle sai;
  38:../../libDaisy//src/per/sai.h ****  *  sai.Init(sai_config);
  39:../../libDaisy//src/per/sai.h ****  *  // Now you can use it:
  40:../../libDaisy//src/per/sai.h ****  *  sai.StartDma(. . .);
  41:../../libDaisy//src/per/sai.h ****  */
  42:../../libDaisy//src/per/sai.h **** class SaiHandle
  43:../../libDaisy//src/per/sai.h **** {
  44:../../libDaisy//src/per/sai.h ****   public:
  45:../../libDaisy//src/per/sai.h ****     /** Contains settings for initialising an SAI Interface */
  46:../../libDaisy//src/per/sai.h ****     struct Config
  47:../../libDaisy//src/per/sai.h ****     {
  48:../../libDaisy//src/per/sai.h ****         /** Specifies the internal peripheral to use (mapped to different hardware pins) */
  49:../../libDaisy//src/per/sai.h ****         enum class Peripheral
  50:../../libDaisy//src/per/sai.h ****         {
  51:../../libDaisy//src/per/sai.h ****             SAI_1,
  52:../../libDaisy//src/per/sai.h ****             SAI_2,
  53:../../libDaisy//src/per/sai.h ****         };
  54:../../libDaisy//src/per/sai.h **** 
  55:../../libDaisy//src/per/sai.h ****         /** Rate at which samples will be streaming to/from the device. */
  56:../../libDaisy//src/per/sai.h ****         enum class SampleRate
  57:../../libDaisy//src/per/sai.h ****         {
  58:../../libDaisy//src/per/sai.h ****             SAI_8KHZ,
  59:../../libDaisy//src/per/sai.h ****             SAI_16KHZ,
  60:../../libDaisy//src/per/sai.h ****             SAI_32KHZ,
  61:../../libDaisy//src/per/sai.h ****             SAI_48KHZ,
  62:../../libDaisy//src/per/sai.h ****             SAI_96KHZ,
  63:../../libDaisy//src/per/sai.h ****         };
  64:../../libDaisy//src/per/sai.h **** 
  65:../../libDaisy//src/per/sai.h ****         /** Bit Depth that the hardware expects to be transferred to/from the device. */
ARM GAS  C:\Users\kgpol\AppData\Local\Temp\ccMDpFSR.s 			page 38


  66:../../libDaisy//src/per/sai.h ****         enum class BitDepth
  67:../../libDaisy//src/per/sai.h ****         {
  68:../../libDaisy//src/per/sai.h ****             SAI_16BIT,
  69:../../libDaisy//src/per/sai.h ****             SAI_24BIT,
  70:../../libDaisy//src/per/sai.h ****             SAI_32BIT,
  71:../../libDaisy//src/per/sai.h ****         };
  72:../../libDaisy//src/per/sai.h **** 
  73:../../libDaisy//src/per/sai.h ****         /** Specifies whether a particular block is the master or the slave 
  74:../../libDaisy//src/per/sai.h ****          ** If both are set to slave, no MCLK signal will be used, and it is
  75:../../libDaisy//src/per/sai.h ****          ** expected that the codec will have its own xtal.
  76:../../libDaisy//src/per/sai.h ****          */
  77:../../libDaisy//src/per/sai.h ****         enum class Sync
  78:../../libDaisy//src/per/sai.h ****         {
  79:../../libDaisy//src/per/sai.h ****             MASTER,
  80:../../libDaisy//src/per/sai.h ****             SLAVE,
  81:../../libDaisy//src/per/sai.h ****         };
  82:../../libDaisy//src/per/sai.h **** 
  83:../../libDaisy//src/per/sai.h ****         /** Specifies the direction for each peripheral block. */
  84:../../libDaisy//src/per/sai.h ****         enum class Direction
  85:../../libDaisy//src/per/sai.h ****         {
  86:../../libDaisy//src/per/sai.h ****             TRANSMIT,
  87:../../libDaisy//src/per/sai.h ****             RECEIVE,
  88:../../libDaisy//src/per/sai.h ****         };
  89:../../libDaisy//src/per/sai.h **** 
  90:../../libDaisy//src/per/sai.h ****         Peripheral periph;
  91:../../libDaisy//src/per/sai.h ****         struct
  92:../../libDaisy//src/per/sai.h ****         {
  93:../../libDaisy//src/per/sai.h ****             dsy_gpio_pin mclk, fs, sck, sa, sb;
  94:../../libDaisy//src/per/sai.h ****         } pin_config;
  95:../../libDaisy//src/per/sai.h ****         SampleRate sr;
  96:../../libDaisy//src/per/sai.h ****         BitDepth   bit_depth;
  97:../../libDaisy//src/per/sai.h ****         Sync       a_sync, b_sync;
  98:../../libDaisy//src/per/sai.h ****         Direction  a_dir, b_dir;
  99:../../libDaisy//src/per/sai.h ****     };
 100:../../libDaisy//src/per/sai.h **** 
 101:../../libDaisy//src/per/sai.h ****     /** Return values for SAI functions */
 102:../../libDaisy//src/per/sai.h ****     enum class Result
 103:../../libDaisy//src/per/sai.h ****     {
 104:../../libDaisy//src/per/sai.h ****         OK,
 105:../../libDaisy//src/per/sai.h ****         ERR,
 106:../../libDaisy//src/per/sai.h ****     };
 107:../../libDaisy//src/per/sai.h **** 
 108:../../libDaisy//src/per/sai.h ****     SaiHandle() : pimpl_(nullptr) {}
 1090              		.loc 11 108 5 is_stmt 1 view .LVU248
 1091              	.LBB321:
 1092              	.LBB322:
 1093              		.loc 11 108 33 is_stmt 0 view .LVU249
 1094 0010 C363     		str	r3, [r0, #60]
 1095              	.LVL63:
 1096              		.loc 11 108 33 view .LVU250
 1097              	.LBE322:
 1098              	.LBE321:
 1099              	.LBE320:
 1100              	.LBE323:
 1101              	.LBE324:
  19:delay-module.cpp **** AnalogControl cv_0, cv_1, cv_2, cv_3;
 1102              		.loc 8 19 18 view .LVU251
ARM GAS  C:\Users\kgpol\AppData\Local\Temp\ccMDpFSR.s 			page 39


 1103 0012 FFF7FEFF 		bl	__aeabi_atexit
 1104              	.LVL64:
 1105              	.LBB325:
 1106              	.LBI325:
  21:../../libDaisy//src/hid/ctrl.h ****     /** destructor */
 1107              		.loc 1 21 5 is_stmt 1 view .LVU252
  21:../../libDaisy//src/hid/ctrl.h ****     /** destructor */
 1108              		.loc 1 21 5 is_stmt 0 view .LVU253
 1109              	.LBE325:
  20:delay-module.cpp **** 
 1110              		.loc 8 20 15 view .LVU254
 1111 0016 1349     		ldr	r1, .L24+12
 1112 0018 104A     		ldr	r2, .L24+4
 1113 001a 1348     		ldr	r0, .L24+16
 1114 001c FFF7FEFF 		bl	__aeabi_atexit
 1115              	.LVL65:
 1116              	.LBB326:
 1117              	.LBI326:
  21:../../libDaisy//src/hid/ctrl.h ****     /** destructor */
 1118              		.loc 1 21 5 is_stmt 1 view .LVU255
  21:../../libDaisy//src/hid/ctrl.h ****     /** destructor */
 1119              		.loc 1 21 5 is_stmt 0 view .LVU256
 1120              	.LBE326:
  20:delay-module.cpp **** 
 1121              		.loc 8 20 21 view .LVU257
 1122 0020 0E4A     		ldr	r2, .L24+4
 1123 0022 1049     		ldr	r1, .L24+12
 1124 0024 1148     		ldr	r0, .L24+20
 1125 0026 FFF7FEFF 		bl	__aeabi_atexit
 1126              	.LVL66:
 1127              	.LBB327:
 1128              	.LBI327:
  21:../../libDaisy//src/hid/ctrl.h ****     /** destructor */
 1129              		.loc 1 21 5 is_stmt 1 view .LVU258
  21:../../libDaisy//src/hid/ctrl.h ****     /** destructor */
 1130              		.loc 1 21 5 is_stmt 0 view .LVU259
 1131              	.LBE327:
  23:delay-module.cpp **** 
 1132              		.loc 8 23 36 view .LVU260
 1133 002a 114C     		ldr	r4, .L24+24
  20:delay-module.cpp **** 
 1134              		.loc 8 20 27 view .LVU261
 1135 002c 0B4A     		ldr	r2, .L24+4
 1136 002e 0D49     		ldr	r1, .L24+12
 1137 0030 1048     		ldr	r0, .L24+28
 1138 0032 FFF7FEFF 		bl	__aeabi_atexit
 1139              	.LVL67:
 1140              	.LBB328:
 1141              	.LBI328:
  21:../../libDaisy//src/hid/ctrl.h ****     /** destructor */
 1142              		.loc 1 21 5 is_stmt 1 view .LVU262
  21:../../libDaisy//src/hid/ctrl.h ****     /** destructor */
 1143              		.loc 1 21 5 is_stmt 0 view .LVU263
 1144              	.LBE328:
  20:delay-module.cpp **** 
 1145              		.loc 8 20 33 view .LVU264
 1146 0036 094A     		ldr	r2, .L24+4
ARM GAS  C:\Users\kgpol\AppData\Local\Temp\ccMDpFSR.s 			page 40


 1147 0038 0A49     		ldr	r1, .L24+12
 1148 003a 0F48     		ldr	r0, .L24+32
 1149 003c FFF7FEFF 		bl	__aeabi_atexit
 1150              	.LVL68:
 1151              	.LBB329:
 1152              	.LBI329:
  31:../../DaisySP//Source/Utility/delayline.h ****     ~DelayLine() {}
 1153              		.loc 7 31 5 is_stmt 1 view .LVU265
  31:../../DaisySP//Source/Utility/delayline.h ****     ~DelayLine() {}
 1154              		.loc 7 31 5 is_stmt 0 view .LVU266
 1155              	.LBE329:
  23:delay-module.cpp **** 
 1156              		.loc 8 23 36 view .LVU267
 1157 0040 2146     		mov	r1, r4
 1158 0042 064A     		ldr	r2, .L24+4
 1159 0044 0D48     		ldr	r0, .L24+36
 1160 0046 FFF7FEFF 		bl	__aeabi_atexit
 1161              	.LVL69:
 1162              	.LBB330:
 1163              	.LBI330:
  31:../../DaisySP//Source/Utility/delayline.h ****     ~DelayLine() {}
 1164              		.loc 7 31 5 is_stmt 1 view .LVU268
  31:../../DaisySP//Source/Utility/delayline.h ****     ~DelayLine() {}
 1165              		.loc 7 31 5 is_stmt 0 view .LVU269
 1166              	.LBE330:
  23:delay-module.cpp **** 
 1167              		.loc 8 23 45 view .LVU270
 1168 004a 2146     		mov	r1, r4
 1169 004c 034A     		ldr	r2, .L24+4
 1170 004e 0C48     		ldr	r0, .L24+40
 1171              	.LBE331:
 1172              	.LBE333:
 1173              		.loc 8 111 1 view .LVU271
 1174 0050 BDE81040 		pop	{r4, lr}
 1175              		.cfi_restore 14
 1176              		.cfi_restore 4
 1177              		.cfi_def_cfa_offset 0
 1178              	.LBB334:
 1179              	.LBB332:
  23:delay-module.cpp **** 
 1180              		.loc 8 23 45 view .LVU272
 1181 0054 FFF7FEBF 		b	__aeabi_atexit
 1182              	.LVL70:
 1183              	.L25:
 1184              		.align	2
 1185              	.L24:
 1186 0058 00000000 		.word	.LANCHOR4
 1187 005c 00000000 		.word	__dso_handle
 1188 0060 00000000 		.word	_ZN5daisy9DaisySeedD1Ev
 1189 0064 00000000 		.word	_ZN5daisy13AnalogControlD1Ev
 1190 0068 00000000 		.word	.LANCHOR0
 1191 006c 00000000 		.word	.LANCHOR1
 1192 0070 00000000 		.word	_ZN7daisysp9DelayLineIfLj48000EED1Ev
 1193 0074 00000000 		.word	.LANCHOR2
 1194 0078 00000000 		.word	.LANCHOR3
 1195 007c 00000000 		.word	_ZL7delay_l
 1196 0080 00000000 		.word	_ZL7delay_r
ARM GAS  C:\Users\kgpol\AppData\Local\Temp\ccMDpFSR.s 			page 41


 1197              	.LBE332:
 1198              	.LBE334:
 1199              		.cfi_endproc
 1200              	.LFE5257:
 1202              		.section	.init_array,"aw",%init_array
 1203              		.align	2
 1204 0000 00000000 		.word	_GLOBAL__sub_I_cv_0(target1)
 1205              		.global	cv_3
 1206              		.global	cv_2
 1207              		.global	cv_1
 1208              		.global	cv_0
 1209              		.section	.bss._ZL2hw,"aw",%nobits
 1210              		.align	2
 1211              		.set	.LANCHOR4,. + 0
 1214              	_ZL2hw:
 1215 0000 00000000 		.space	64
 1215      00000000 
 1215      00000000 
 1215      00000000 
 1215      00000000 
 1216              		.section	.bss._ZL7delay_l,"aw",%nobits
 1217              		.align	2
 1220              	_ZL7delay_l:
 1221 0000 00000000 		.space	192012
 1221      00000000 
 1221      00000000 
 1221      00000000 
 1221      00000000 
 1222              		.section	.bss._ZL7delay_r,"aw",%nobits
 1223              		.align	2
 1226              	_ZL7delay_r:
 1227 0000 00000000 		.space	192012
 1227      00000000 
 1227      00000000 
 1227      00000000 
 1227      00000000 
 1228              		.section	.bss.cv_0,"aw",%nobits
 1229              		.align	2
 1230              		.set	.LANCHOR0,. + 0
 1233              	cv_0:
 1234 0000 00000000 		.space	32
 1234      00000000 
 1234      00000000 
 1234      00000000 
 1234      00000000 
 1235              		.section	.bss.cv_1,"aw",%nobits
 1236              		.align	2
 1237              		.set	.LANCHOR1,. + 0
 1240              	cv_1:
 1241 0000 00000000 		.space	32
 1241      00000000 
 1241      00000000 
 1241      00000000 
 1241      00000000 
 1242              		.section	.bss.cv_2,"aw",%nobits
 1243              		.align	2
 1244              		.set	.LANCHOR2,. + 0
ARM GAS  C:\Users\kgpol\AppData\Local\Temp\ccMDpFSR.s 			page 42


 1247              	cv_2:
 1248 0000 00000000 		.space	32
 1248      00000000 
 1248      00000000 
 1248      00000000 
 1248      00000000 
 1249              		.section	.bss.cv_3,"aw",%nobits
 1250              		.align	2
 1251              		.set	.LANCHOR3,. + 0
 1254              	cv_3:
 1255 0000 00000000 		.space	32
 1255      00000000 
 1255      00000000 
 1255      00000000 
 1255      00000000 
 1256              		.text
 1257              	.Letext0:
 1258              		.file 12 "c:\\program files\\daisytoolchain\\arm-none-eabi\\include\\machine\\_default_types.h"
 1259              		.file 13 "c:\\program files\\daisytoolchain\\arm-none-eabi\\include\\sys\\_stdint.h"
 1260              		.file 14 "c:\\program files\\daisytoolchain\\arm-none-eabi\\include\\stdint.h"
 1261              		.file 15 "c:\\program files\\daisytoolchain\\lib\\gcc\\arm-none-eabi\\10.2.1\\include\\stddef.h"
 1262              		.file 16 "c:\\program files\\daisytoolchain\\arm-none-eabi\\include\\c++\\10.2.1\\cmath"
 1263              		.file 17 "c:\\program files\\daisytoolchain\\arm-none-eabi\\include\\c++\\10.2.1\\bits\\std_abs.h"
 1264              		.file 18 "c:\\program files\\daisytoolchain\\arm-none-eabi\\include\\c++\\10.2.1\\cstdint"
 1265              		.file 19 "c:\\program files\\daisytoolchain\\arm-none-eabi\\include\\c++\\10.2.1\\cstdlib"
 1266              		.file 20 "c:\\program files\\daisytoolchain\\arm-none-eabi\\include\\c++\\10.2.1\\type_traits"
 1267              		.file 21 "c:\\program files\\daisytoolchain\\arm-none-eabi\\include\\c++\\10.2.1\\debug\\debug.h"
 1268              		.file 22 "c:\\program files\\daisytoolchain\\arm-none-eabi\\include\\c++\\10.2.1\\cwchar"
 1269              		.file 23 "c:\\program files\\daisytoolchain\\arm-none-eabi\\include\\c++\\10.2.1\\bits\\stl_pair.h
 1270              		.file 24 "c:\\program files\\daisytoolchain\\arm-none-eabi\\include\\c++\\10.2.1\\bits\\exception_
 1271              		.file 25 "c:\\program files\\daisytoolchain\\arm-none-eabi\\include\\c++\\10.2.1\\arm-none-eabi\\t
 1272              		.file 26 "c:\\program files\\daisytoolchain\\arm-none-eabi\\include\\c++\\10.2.1\\clocale"
 1273              		.file 27 "c:\\program files\\daisytoolchain\\arm-none-eabi\\include\\c++\\10.2.1\\cstdio"
 1274              		.file 28 "c:\\program files\\daisytoolchain\\arm-none-eabi\\include\\c++\\10.2.1\\bits\\basic_stri
 1275              		.file 29 "c:\\program files\\daisytoolchain\\arm-none-eabi\\include\\c++\\10.2.1\\bits\\charconv.h
 1276              		.file 30 "c:\\program files\\daisytoolchain\\arm-none-eabi\\include\\c++\\10.2.1\\bits\\algorithmf
 1277              		.file 31 "c:\\program files\\daisytoolchain\\arm-none-eabi\\include\\c++\\10.2.1\\cstring"
 1278              		.file 32 "c:\\program files\\daisytoolchain\\arm-none-eabi\\include\\c++\\10.2.1\\cstdarg"
 1279              		.file 33 "c:\\program files\\daisytoolchain\\arm-none-eabi\\include\\c++\\10.2.1\\bits\\predefined
 1280              		.file 34 "c:\\program files\\daisytoolchain\\arm-none-eabi\\include\\sys\\_types.h"
 1281              		.file 35 "c:\\program files\\daisytoolchain\\arm-none-eabi\\include\\sys\\reent.h"
 1282              		.file 36 "c:\\program files\\daisytoolchain\\arm-none-eabi\\include\\sys\\lock.h"
 1283              		.file 37 "c:\\program files\\daisytoolchain\\arm-none-eabi\\include\\math.h"
 1284              		.file 38 "c:\\program files\\daisytoolchain\\arm-none-eabi\\include\\stdlib.h"
 1285              		.file 39 "c:\\program files\\daisytoolchain\\arm-none-eabi\\include\\c++\\10.2.1\\math.h"
 1286              		.file 40 "../../DaisySP//Source/Control/adenv.h"
 1287              		.file 41 "../../DaisySP//Source/Utility/dsp.h"
 1288              		.file 42 "c:\\program files\\daisytoolchain\\lib\\gcc\\arm-none-eabi\\10.2.1\\include\\stdarg.h"
 1289              		.file 43 "c:\\program files\\daisytoolchain\\arm-none-eabi\\include\\wchar.h"
 1290              		.file 44 "c:\\program files\\daisytoolchain\\arm-none-eabi\\include\\locale.h"
 1291              		.file 45 "c:\\program files\\daisytoolchain\\arm-none-eabi\\include\\stdio.h"
 1292              		.file 46 "c:\\program files\\daisytoolchain\\arm-none-eabi\\include\\c++\\10.2.1\\stdlib.h"
 1293              		.file 47 "c:\\program files\\daisytoolchain\\arm-none-eabi\\include\\string.h"
 1294              		.file 48 "../../libDaisy//src/daisy_core.h"
 1295              		.file 49 "../../libDaisy//src/per/tim.h"
 1296              		.file 50 "../../libDaisy//src/util/wav_format.h"
 1297              		.file 51 "../../libDaisy//src/dev/max11300.h"
ARM GAS  C:\Users\kgpol\AppData\Local\Temp\ccMDpFSR.s 			page 43


 1298              		.file 52 "../../libDaisy//src/per/gpio.h"
 1299              		.file 53 "../../libDaisy//src/dev/sdram.h"
 1300              		.file 54 "../../libDaisy//src/dev/sr_595.h"
 1301              		.file 55 "<built-in>"
ARM GAS  C:\Users\kgpol\AppData\Local\Temp\ccMDpFSR.s 			page 44


DEFINED SYMBOLS
                            *ABS*:00000000 delay-module.cpp
C:\Users\kgpol\AppData\Local\Temp\ccMDpFSR.s:17     .text._ZN5daisy13AnalogControlD2Ev:00000000 $t
C:\Users\kgpol\AppData\Local\Temp\ccMDpFSR.s:26     .text._ZN5daisy13AnalogControlD2Ev:00000000 _ZN5daisy13AnalogControlD2Ev
C:\Users\kgpol\AppData\Local\Temp\ccMDpFSR.s:26     .text._ZN5daisy13AnalogControlD2Ev:00000000 _ZN5daisy13AnalogControlD1Ev
C:\Users\kgpol\AppData\Local\Temp\ccMDpFSR.s:43     .text._ZN5daisy9DaisySeedD2Ev:00000000 $t
C:\Users\kgpol\AppData\Local\Temp\ccMDpFSR.s:51     .text._ZN5daisy9DaisySeedD2Ev:00000000 _ZN5daisy9DaisySeedD2Ev
C:\Users\kgpol\AppData\Local\Temp\ccMDpFSR.s:51     .text._ZN5daisy9DaisySeedD2Ev:00000000 _ZN5daisy9DaisySeedD1Ev
C:\Users\kgpol\AppData\Local\Temp\ccMDpFSR.s:92     .text._ZN7daisysp9DelayLineIfLj48000EED2Ev:00000000 $t
C:\Users\kgpol\AppData\Local\Temp\ccMDpFSR.s:100    .text._ZN7daisysp9DelayLineIfLj48000EED2Ev:00000000 _ZN7daisysp9DelayLineIfLj48000EED2Ev
C:\Users\kgpol\AppData\Local\Temp\ccMDpFSR.s:100    .text._ZN7daisysp9DelayLineIfLj48000EED2Ev:00000000 _ZN7daisysp9DelayLineIfLj48000EED1Ev
C:\Users\kgpol\AppData\Local\Temp\ccMDpFSR.s:117    .text._ZL13AudioCallbackPKfPfj:00000000 $t
C:\Users\kgpol\AppData\Local\Temp\ccMDpFSR.s:124    .text._ZL13AudioCallbackPKfPfj:00000000 _ZL13AudioCallbackPKfPfj
C:\Users\kgpol\AppData\Local\Temp\ccMDpFSR.s:640    .text._ZL13AudioCallbackPKfPfj:00000194 $d
C:\Users\kgpol\AppData\Local\Temp\ccMDpFSR.s:1220   .bss._ZL7delay_l:00000000 _ZL7delay_l
C:\Users\kgpol\AppData\Local\Temp\ccMDpFSR.s:1226   .bss._ZL7delay_r:00000000 _ZL7delay_r
C:\Users\kgpol\AppData\Local\Temp\ccMDpFSR.s:652    .text.startup.main:00000000 $t
C:\Users\kgpol\AppData\Local\Temp\ccMDpFSR.s:660    .text.startup.main:00000000 main
C:\Users\kgpol\AppData\Local\Temp\ccMDpFSR.s:972    .text.startup.main:00000140 $d
C:\Users\kgpol\AppData\Local\Temp\ccMDpFSR.s:987    .text.startup._GLOBAL__sub_I_cv_0:00000000 $t
C:\Users\kgpol\AppData\Local\Temp\ccMDpFSR.s:994    .text.startup._GLOBAL__sub_I_cv_0:00000000 _GLOBAL__sub_I_cv_0
C:\Users\kgpol\AppData\Local\Temp\ccMDpFSR.s:1186   .text.startup._GLOBAL__sub_I_cv_0:00000058 $d
C:\Users\kgpol\AppData\Local\Temp\ccMDpFSR.s:1203   .init_array:00000000 $d
C:\Users\kgpol\AppData\Local\Temp\ccMDpFSR.s:1254   .bss.cv_3:00000000 cv_3
C:\Users\kgpol\AppData\Local\Temp\ccMDpFSR.s:1247   .bss.cv_2:00000000 cv_2
C:\Users\kgpol\AppData\Local\Temp\ccMDpFSR.s:1240   .bss.cv_1:00000000 cv_1
C:\Users\kgpol\AppData\Local\Temp\ccMDpFSR.s:1233   .bss.cv_0:00000000 cv_0
C:\Users\kgpol\AppData\Local\Temp\ccMDpFSR.s:1210   .bss._ZL2hw:00000000 $d
C:\Users\kgpol\AppData\Local\Temp\ccMDpFSR.s:1214   .bss._ZL2hw:00000000 _ZL2hw
C:\Users\kgpol\AppData\Local\Temp\ccMDpFSR.s:1217   .bss._ZL7delay_l:00000000 $d
C:\Users\kgpol\AppData\Local\Temp\ccMDpFSR.s:1223   .bss._ZL7delay_r:00000000 $d
C:\Users\kgpol\AppData\Local\Temp\ccMDpFSR.s:1229   .bss.cv_0:00000000 $d
C:\Users\kgpol\AppData\Local\Temp\ccMDpFSR.s:1236   .bss.cv_1:00000000 $d
C:\Users\kgpol\AppData\Local\Temp\ccMDpFSR.s:1243   .bss.cv_2:00000000 $d
C:\Users\kgpol\AppData\Local\Temp\ccMDpFSR.s:1250   .bss.cv_3:00000000 $d
                           .group:00000000 _ZN5daisy13AnalogControlD5Ev
                           .group:00000000 _ZN5daisy9DaisySeedD5Ev
                           .group:00000000 _ZN7daisysp9DelayLineIfLj48000EED5Ev

UNDEFINED SYMBOLS
_ZN5daisy13AnalogControl7ProcessEv
_ZN5daisy9DaisySeed9ConfigureEv
_ZN5daisy9DaisySeed4InitEb
_ZN5daisy9DaisySeed17SetAudioBlockSizeEj
_ZN5daisy9DaisySeed15AudioSampleRateEv
memset
_ZN5daisy16AdcChannelConfig10InitSingleE12dsy_gpio_pinNS0_15ConversionSpeedE
_ZN5daisy9AdcHandle4InitEPNS_16AdcChannelConfigEjNS0_12OverSamplingE
_ZN5daisy9AdcHandle5StartEv
_ZNK5daisy9AdcHandle6GetPtrEh
_ZN5daisy13AnalogControl4InitEPtfbbf
_ZN5daisy9DaisySeed10StartAudioEPFvPKfPfjE
__aeabi_atexit
__dso_handle
